///////////////////////////////////////////////////////////////////////////////
//                                                                            /
// IAR C/C++ Compiler V8.10.3.10338/W32 for 8051        26/Nov/2017  11:12:13 /
// Copyright 2004-2011 IAR Systems AB.                                        /
//                                                                            /
//    Core               =  plain                                             /
//    Code model         =  banked                                            /
//    Data model         =  large                                             /
//    Calling convention =  xdata reentrant                                   /
//    Constant location  =  data_rom                                          /
//    Dptr setup         =  1,16                                              /
//    Source file        =  D:\FileInstall\ZStack-CC2530-2.5.1a_GreenRoom\Pro /
//                          jects\zstack\Samples\GreenClassroom_NetWork       /
//                          2.1\Source\GreenRoom.c                            /
//    Command line       =  -f "D:\FileInstall\ZStack-CC2530-2.5.1a_GreenRoom /
//                          \Projects\zstack\Samples\GreenClassroom_NetWork   /
//                          2.1\CC2530DB\..\..\..\Tools\CC2530DB\f8wEndev.cfg /
//                          " (-DCPU32MHZ -DROOT=__near_func                  /
//                          -DMAC_CFG_TX_DATA_MAX=3 -DMAC_CFG_TX_MAX=6        /
//                          -DMAC_CFG_RX_MAX=3) -f "D:\FileInstall\ZStack-CC2 /
//                          530-2.5.1a_GreenRoom\Projects\zstack\Samples\Gree /
//                          nClassroom_NetWork 2.1\CC2530DB\..\..\..\Tools\CC /
//                          2530DB\f8wConfig.cfg" (-DZIGBEEPRO -DSECURE=0     /
//                          -DZG_SECURE_DYNAMIC=0 -DREFLECTOR                 /
//                          -DDEFAULT_CHANLIST=0x00000800                     /
//                          -DZDAPP_CONFIG_PAN_ID=0xFFFF                      /
//                          -DNWK_START_DELAY=100 -DEXTENDED_JOINING_RANDOM_M /
//                          ASK=0x007F -DBEACON_REQUEST_DELAY=100             /
//                          -DBEACON_REQ_DELAY_MASK=0x00FF                    /
//                          -DLINK_STATUS_JITTER_MASK=0x007F                  /
//                          -DROUTE_EXPIRY_TIME=30 -DAPSC_ACK_WAIT_DURATION_P /
//                          OLLED=3000 -DNWK_INDIRECT_MSG_TIMEOUT=7           /
//                          -DMAX_RREQ_ENTRIES=8 -DAPSC_MAX_FRAME_RETRIES=3   /
//                          -DNWK_MAX_DATA_RETRIES=2                          /
//                          -DMAX_POLL_FAILURE_RETRIES=2 -DMAX_BCAST=9        /
//                          -DAPS_MAX_GROUPS=16 -DMAX_RTG_ENTRIES=40          /
//                          -DNWK_MAX_BINDING_ENTRIES=4                       /
//                          -DMAX_BINDING_CLUSTER_IDS=4                       /
//                          "-DDEFAULT_KEY={0x01, 0x03, 0x05, 0x07, 0x09,     /
//                          0x0B, 0x0D, 0x0F, 0x00, 0x02, 0x04, 0x06, 0x08,   /
//                          0x0A, 0x0C, 0x0D}" -DMAC_MAX_FRAME_SIZE=116       /
//                          -DZDNWKMGR_MIN_TRANSMISSIONS=20 "-DCONST=const    /
//                          __code" -DGENERIC=__generic                       /
//                          -DRFD_RCVC_ALWAYS_ON=FALSE -DPOLL_RATE=1000       /
//                          -DQUEUED_POLL_RATE=100 -DRESPONSE_POLL_RATE=100)  /
//                          -DREJOIN_POLL_RATE=440 "D:\FileInstall\ZStack-CC2 /
//                          530-2.5.1a_GreenRoom\Projects\zstack\Samples\Gree /
//                          nClassroom_NetWork 2.1\Source\GreenRoom.c" -D     /
//                          NWK_AUTO_POLL -D ZTOOL_P1 -D MT_TASK -D           /
//                          MT_SYS_FUNC -D MT_ZDO_FUNC -D                     /
//                          LCD_SUPPORTED=DEBUG -D xPOWER_SAVING -lC          /
//                          "D:\FileInstall\ZStack-CC2530-2.5.1a_GreenRoom\Pr /
//                          ojects\zstack\Samples\GreenClassroom_NetWork      /
//                          2.1\CC2530DB\EndDeviceEB\List\" -lA               /
//                          "D:\FileInstall\ZStack-CC2530-2.5.1a_GreenRoom\Pr /
//                          ojects\zstack\Samples\GreenClassroom_NetWork      /
//                          2.1\CC2530DB\EndDeviceEB\List\" --diag_suppress   /
//                          Pe001,Pa010 -o "D:\FileInstall\ZStack-CC2530-2.5. /
//                          1a_GreenRoom\Projects\zstack\Samples\GreenClassro /
//                          om_NetWork 2.1\CC2530DB\EndDeviceEB\Obj\" -e      /
//                          --no_code_motion --debug --core=plain             /
//                          --dptr=16,1 --data_model=large                    /
//                          --code_model=banked --calling_convention=xdata_re /
//                          entrant --place_constants=data_rom                /
//                          --nr_virtual_regs 16 -I                           /
//                          "D:\FileInstall\ZStack-CC2530-2.5.1a_GreenRoom\Pr /
//                          ojects\zstack\Samples\GreenClassroom_NetWork      /
//                          2.1\CC2530DB\" -I "D:\FileInstall\ZStack-CC2530-2 /
//                          .5.1a_GreenRoom\Projects\zstack\Samples\GreenClas /
//                          sroom_NetWork 2.1\CC2530DB\..\Source\" -I         /
//                          "D:\FileInstall\ZStack-CC2530-2.5.1a_GreenRoom\Pr /
//                          ojects\zstack\Samples\GreenClassroom_NetWork      /
//                          2.1\CC2530DB\..\..\..\ZMain\TI2530DB\" -I         /
//                          "D:\FileInstall\ZStack-CC2530-2.5.1a_GreenRoom\Pr /
//                          ojects\zstack\Samples\GreenClassroom_NetWork      /
//                          2.1\CC2530DB\..\..\..\..\..\Components\hal\includ /
//                          e\" -I "D:\FileInstall\ZStack-CC2530-2.5.1a_Green /
//                          Room\Projects\zstack\Samples\GreenClassroom_NetWo /
//                          rk 2.1\CC2530DB\..\..\..\..\..\Components\hal\tar /
//                          get\CC2530EB\" -I "D:\FileInstall\ZStack-CC2530-2 /
//                          .5.1a_GreenRoom\Projects\zstack\Samples\GreenClas /
//                          sroom_NetWork 2.1\CC2530DB\..\..\..\..\..\Compone /
//                          nts\mac\include\" -I "D:\FileInstall\ZStack-CC253 /
//                          0-2.5.1a_GreenRoom\Projects\zstack\Samples\GreenC /
//                          lassroom_NetWork 2.1\CC2530DB\..\..\..\..\..\Comp /
//                          onents\mac\high_level\" -I                        /
//                          "D:\FileInstall\ZStack-CC2530-2.5.1a_GreenRoom\Pr /
//                          ojects\zstack\Samples\GreenClassroom_NetWork      /
//                          2.1\CC2530DB\..\..\..\..\..\Components\mac\low_le /
//                          vel\srf04\" -I "D:\FileInstall\ZStack-CC2530-2.5. /
//                          1a_GreenRoom\Projects\zstack\Samples\GreenClassro /
//                          om_NetWork 2.1\CC2530DB\..\..\..\..\..\Components /
//                          \mac\low_level\srf04\single_chip\" -I             /
//                          "D:\FileInstall\ZStack-CC2530-2.5.1a_GreenRoom\Pr /
//                          ojects\zstack\Samples\GreenClassroom_NetWork      /
//                          2.1\CC2530DB\..\..\..\..\..\Components\mt\" -I    /
//                          "D:\FileInstall\ZStack-CC2530-2.5.1a_GreenRoom\Pr /
//                          ojects\zstack\Samples\GreenClassroom_NetWork      /
//                          2.1\CC2530DB\..\..\..\..\..\Components\osal\inclu /
//                          de\" -I "D:\FileInstall\ZStack-CC2530-2.5.1a_Gree /
//                          nRoom\Projects\zstack\Samples\GreenClassroom_NetW /
//                          ork 2.1\CC2530DB\..\..\..\..\..\Components\servic /
//                          es\saddr\" -I "D:\FileInstall\ZStack-CC2530-2.5.1 /
//                          a_GreenRoom\Projects\zstack\Samples\GreenClassroo /
//                          m_NetWork 2.1\CC2530DB\..\..\..\..\..\Components\ /
//                          services\sdata\" -I "D:\FileInstall\ZStack-CC2530 /
//                          -2.5.1a_GreenRoom\Projects\zstack\Samples\GreenCl /
//                          assroom_NetWork 2.1\CC2530DB\..\..\..\..\..\Compo /
//                          nents\stack\af\" -I "D:\FileInstall\ZStack-CC2530 /
//                          -2.5.1a_GreenRoom\Projects\zstack\Samples\GreenCl /
//                          assroom_NetWork 2.1\CC2530DB\..\..\..\..\..\Compo /
//                          nents\stack\nwk\" -I "D:\FileInstall\ZStack-CC253 /
//                          0-2.5.1a_GreenRoom\Projects\zstack\Samples\GreenC /
//                          lassroom_NetWork 2.1\CC2530DB\..\..\..\..\..\Comp /
//                          onents\stack\sapi\" -I "D:\FileInstall\ZStack-CC2 /
//                          530-2.5.1a_GreenRoom\Projects\zstack\Samples\Gree /
//                          nClassroom_NetWork 2.1\CC2530DB\..\..\..\..\..\Co /
//                          mponents\stack\sec\" -I                           /
//                          "D:\FileInstall\ZStack-CC2530-2.5.1a_GreenRoom\Pr /
//                          ojects\zstack\Samples\GreenClassroom_NetWork      /
//                          2.1\CC2530DB\..\..\..\..\..\Components\stack\sys\ /
//                          " -I "D:\FileInstall\ZStack-CC2530-2.5.1a_GreenRo /
//                          om\Projects\zstack\Samples\GreenClassroom_NetWork /
//                           2.1\CC2530DB\..\..\..\..\..\Components\stack\zdo /
//                          \" -I "D:\FileInstall\ZStack-CC2530-2.5.1a_GreenR /
//                          oom\Projects\zstack\Samples\GreenClassroom_NetWor /
//                          k 2.1\CC2530DB\..\..\..\..\..\Components\zmac\"   /
//                          -I "D:\FileInstall\ZStack-CC2530-2.5.1a_GreenRoom /
//                          \Projects\zstack\Samples\GreenClassroom_NetWork   /
//                          2.1\CC2530DB\..\..\..\..\..\Components\zmac\f8w\" /
//                           -Ohz --require_prototypes                        /
//    List file          =  D:\FileInstall\ZStack-CC2530-2.5.1a_GreenRoom\Pro /
//                          jects\zstack\Samples\GreenClassroom_NetWork       /
//                          2.1\CC2530DB\EndDeviceEB\List\GreenRoom.s51       /
//                                                                            /
//                                                                            /
///////////////////////////////////////////////////////////////////////////////

        NAME GreenRoom

        RTMODEL "__SystemLibrary", "CLib"
        RTMODEL "__calling_convention", "xdata_reentrant"
        RTMODEL "__code_model", "banked"
        RTMODEL "__core", "plain"
        RTMODEL "__data_model", "large"
        RTMODEL "__dptr_size", "16"
        RTMODEL "__extended_stack", "disabled"
        RTMODEL "__location_for_constants", "data"
        RTMODEL "__number_of_dptrs", "1"
        RTMODEL "__rt_version", "1"

        RSEG DOVERLAY:DATA:NOROOT(0)
        RSEG IOVERLAY:IDATA:NOROOT(0)
        RSEG ISTACK:IDATA:NOROOT(0)
        RSEG PSTACK:XDATA:NOROOT(0)
        RSEG XSTACK:XDATA:NOROOT(0)

        EXTERN ?BDISPATCH
        EXTERN ?BRET
        EXTERN __INIT_XDATA_Z

        PUBLIC ??close_led?relay
        FUNCTION ??close_led?relay,0203H
        PUBLIC ??green_room_control?relay
        FUNCTION ??green_room_control?relay,0203H
        PUBLIC ??green_room_init?relay
        FUNCTION ??green_room_init?relay,0203H
        PUBLIC ??open_all_led?relay
        FUNCTION ??open_all_led?relay,0203H
        PUBLIC ??open_half_led?relay
        FUNCTION ??open_half_led?relay,0203H
        PUBWEAK P0DIR
        PUBWEAK P0SEL
        PUBWEAK _A_P0
        PUBLIC body_state
        PUBLIC close_led
        FUNCTION close_led,021203H
        ARGFRAME XSTACK, 0, STACK
        ARGFRAME IOVERLAY, 0, STATIC
        ARGFRAME DOVERLAY, 0, STATIC
        LOCFRAME ISTACK, 2, STACK
        PUBLIC green_room_control
        FUNCTION green_room_control,021203H
        ARGFRAME XSTACK, 0, STACK
        LOCFRAME ISTACK, 2, STACK
        PUBLIC green_room_init
        FUNCTION green_room_init,0203H
        ARGFRAME XSTACK, 0, STACK
        PUBLIC led_state
        PUBLIC light_state
        PUBLIC open_all_led
        FUNCTION open_all_led,021203H
        ARGFRAME XSTACK, 0, STACK
        ARGFRAME IOVERLAY, 0, STATIC
        ARGFRAME DOVERLAY, 0, STATIC
        LOCFRAME ISTACK, 2, STACK
        PUBLIC open_half_led
        FUNCTION open_half_led,021203H
        ARGFRAME XSTACK, 0, STACK
        ARGFRAME IOVERLAY, 0, STATIC
        ARGFRAME DOVERLAY, 0, STATIC
        LOCFRAME ISTACK, 2, STACK
        PUBLIC switch_state
        
        CFI Names cfiNames0
        CFI StackFrame CFA_SP SP IDATA
        CFI StackFrame CFA_PSP16 PSP16 XDATA
        CFI StackFrame CFA_XSP16 XSP16 XDATA
        CFI StaticOverlayFrame CFA_IOVERLAY IOVERLAY
        CFI StaticOverlayFrame CFA_DOVERLAY DOVERLAY
        CFI Resource `PSW.CY`:1, `B.BR0`:1, `B.BR1`:1, `B.BR2`:1, `B.BR3`:1
        CFI Resource `B.BR4`:1, `B.BR5`:1, `B.BR6`:1, `B.BR7`:1, `VB.BR8`:1
        CFI Resource `VB.BR9`:1, `VB.BR10`:1, `VB.BR11`:1, `VB.BR12`:1
        CFI Resource `VB.BR13`:1, `VB.BR14`:1, `VB.BR15`:1, VB:8, B:8, A:8
        CFI Resource PSW:8, DPL0:8, DPH0:8, R0:8, R1:8, R2:8, R3:8, R4:8, R5:8
        CFI Resource R6:8, R7:8, V0:8, V1:8, V2:8, V3:8, V4:8, V5:8, V6:8, V7:8
        CFI Resource V8:8, V9:8, V10:8, V11:8, V12:8, V13:8, V14:8, V15:8, SP:8
        CFI Resource PSPH:8, PSPL:8, PSP16:16, XSPH:8, XSPL:8, XSP16:16
        CFI VirtualResource ?RET:24
        CFI Resource ?BRET_EXT:8
        CFI VirtualResource ?RET_HIGH:8, ?RET_LOW:8
        CFI ResourceParts PSP16 PSPH, PSPL
        CFI ResourceParts XSP16 XSPH, XSPL
        CFI ResourceParts ?RET ?BRET_EXT, ?RET_HIGH, ?RET_LOW
        CFI EndNames cfiNames0
        
        CFI Common cfiCommon0 Using cfiNames0
        CFI CodeAlign 1
        CFI DataAlign -1
        CFI ReturnAddress ?RET CODE
        CFI CFA_DOVERLAY Used
        CFI CFA_IOVERLAY Used
        CFI CFA_SP SP+-3
        CFI CFA_PSP16 PSP16+0
        CFI CFA_XSP16 XSP16+0
        CFI `PSW.CY` SameValue
        CFI `B.BR0` SameValue
        CFI `B.BR1` SameValue
        CFI `B.BR2` SameValue
        CFI `B.BR3` SameValue
        CFI `B.BR4` SameValue
        CFI `B.BR5` SameValue
        CFI `B.BR6` SameValue
        CFI `B.BR7` SameValue
        CFI `VB.BR8` SameValue
        CFI `VB.BR9` SameValue
        CFI `VB.BR10` SameValue
        CFI `VB.BR11` SameValue
        CFI `VB.BR12` SameValue
        CFI `VB.BR13` SameValue
        CFI `VB.BR14` SameValue
        CFI `VB.BR15` SameValue
        CFI VB SameValue
        CFI B Undefined
        CFI A Undefined
        CFI PSW SameValue
        CFI DPL0 SameValue
        CFI DPH0 SameValue
        CFI R0 Undefined
        CFI R1 Undefined
        CFI R2 Undefined
        CFI R3 Undefined
        CFI R4 Undefined
        CFI R5 Undefined
        CFI R6 SameValue
        CFI R7 SameValue
        CFI V0 SameValue
        CFI V1 SameValue
        CFI V2 SameValue
        CFI V3 SameValue
        CFI V4 SameValue
        CFI V5 SameValue
        CFI V6 SameValue
        CFI V7 SameValue
        CFI V8 SameValue
        CFI V9 SameValue
        CFI V10 SameValue
        CFI V11 SameValue
        CFI V12 SameValue
        CFI V13 SameValue
        CFI V14 SameValue
        CFI V15 SameValue
        CFI PSPH Undefined
        CFI PSPL Undefined
        CFI XSPH Undefined
        CFI XSPL Undefined
        CFI ?RET Concat
        CFI ?BRET_EXT Frame(CFA_SP, 3)
        CFI ?RET_HIGH Frame(CFA_SP, 2)
        CFI ?RET_LOW Frame(CFA_SP, 1)
        CFI EndCommon cfiCommon0
        
        
        CFI Common cfiCommon1 Using cfiNames0
        CFI CodeAlign 1
        CFI DataAlign -1
        CFI ReturnAddress ?RET CODE
        CFI CFA_DOVERLAY Used
        CFI CFA_IOVERLAY Used
        CFI CFA_SP SP+-2
        CFI CFA_PSP16 PSP16+0
        CFI CFA_XSP16 XSP16+0
        CFI `PSW.CY` SameValue
        CFI `B.BR0` SameValue
        CFI `B.BR1` SameValue
        CFI `B.BR2` SameValue
        CFI `B.BR3` SameValue
        CFI `B.BR4` SameValue
        CFI `B.BR5` SameValue
        CFI `B.BR6` SameValue
        CFI `B.BR7` SameValue
        CFI `VB.BR8` SameValue
        CFI `VB.BR9` SameValue
        CFI `VB.BR10` SameValue
        CFI `VB.BR11` SameValue
        CFI `VB.BR12` SameValue
        CFI `VB.BR13` SameValue
        CFI `VB.BR14` SameValue
        CFI `VB.BR15` SameValue
        CFI VB SameValue
        CFI B SameValue
        CFI A SameValue
        CFI PSW SameValue
        CFI DPL0 SameValue
        CFI DPH0 SameValue
        CFI R0 SameValue
        CFI R1 SameValue
        CFI R2 SameValue
        CFI R3 SameValue
        CFI R4 SameValue
        CFI R5 SameValue
        CFI R6 SameValue
        CFI R7 SameValue
        CFI V0 SameValue
        CFI V1 SameValue
        CFI V2 SameValue
        CFI V3 SameValue
        CFI V4 SameValue
        CFI V5 SameValue
        CFI V6 SameValue
        CFI V7 SameValue
        CFI V8 SameValue
        CFI V9 SameValue
        CFI V10 SameValue
        CFI V11 SameValue
        CFI V12 SameValue
        CFI V13 SameValue
        CFI V14 SameValue
        CFI V15 SameValue
        CFI PSPH Undefined
        CFI PSPL Undefined
        CFI XSPH Undefined
        CFI XSPL Undefined
        CFI ?RET Concat
        CFI ?BRET_EXT SameValue
        CFI ?RET_HIGH Frame(CFA_SP, 2)
        CFI ?RET_LOW Frame(CFA_SP, 1)
        CFI EndCommon cfiCommon1
        
HalLedSet           SYMBOL "HalLedSet"
??HalLedSet?relay   SYMBOL "?relay", HalLedSet
close_led           SYMBOL "close_led"
??close_led?relay   SYMBOL "?relay", close_led
green_room_control  SYMBOL "green_room_control"
??green_room_control?relay SYMBOL "?relay", green_room_control
green_room_init     SYMBOL "green_room_init"
??green_room_init?relay SYMBOL "?relay", green_room_init
open_all_led        SYMBOL "open_all_led"
??open_all_led?relay SYMBOL "?relay", open_all_led
open_half_led       SYMBOL "open_half_led"
??open_half_led?relay SYMBOL "?relay", open_half_led

        EXTERN HalLedSet
        FUNCTION HalLedSet,0202H
        ARGFRAME ISTACK, 2, STACK
        ARGFRAME PSTACK, 0, STACK
        ARGFRAME XSTACK, 0, STACK
        ARGFRAME IOVERLAY, 0, STATIC
        ARGFRAME DOVERLAY, 0, STATIC
        EXTERN ??HalLedSet?relay
        FUNCTION ??HalLedSet?relay,00H

// D:\FileInstall\ZStack-CC2530-2.5.1a_GreenRoom\Projects\zstack\Samples\GreenClassroom_NetWork 2.1\Source\GreenRoom.c
//    1 #include "GreenRoom.h"
//    2 #include "hal_types.h"
//    3 #include "iocc2530.h"

        ASEGN SFR_AN:DATA:NOROOT,080H
// union <unnamed> volatile __sfr _A_P0
_A_P0:
        DATA8
        DS 1

        ASEGN SFR_AN:DATA:NOROOT,0f3H
// unsigned char volatile __sfr P0SEL
P0SEL:
        DATA8
        DS 1

        ASEGN SFR_AN:DATA:NOROOT,0fdH
// unsigned char volatile __sfr P0DIR
P0DIR:
        DATA8
        DS 1
//    4 #include "hal_drivers.h"
//    5 #include "osal.h"
//    6 #include "hal_led.h"
//    7 #include "hal_light_detect.h"
//    8 
//    9 #define LOW  0x00
//   10 #define MID  0x01
//   11 #define HIGH 0x02
//   12 
//   13 extern bool changedshift;

        RSEG XDATA_Z:XDATA:NOROOT(0)
        DATA8
//   14 bool body_state;
body_state:
        DS 1
        REQUIRE __INIT_XDATA_Z

        RSEG XDATA_Z:XDATA:NOROOT(0)
        DATA8
//   15 uint8 light_state;
light_state:
        DS 1
        REQUIRE __INIT_XDATA_Z

        RSEG XDATA_Z:XDATA:NOROOT(0)
        DATA8
//   16 bool switch_state;
switch_state:
        DS 1
        REQUIRE __INIT_XDATA_Z

        RSEG XDATA_Z:XDATA:NOROOT(0)
        DATA8
//   17 bool led_state;
led_state:
        DS 1
        REQUIRE __INIT_XDATA_Z
//   18 void green_room_init( void );
//   19 

        RSEG BANKED_CODE:CODE:NOROOT(0)
//   20 void green_room_init( void ) {
green_room_init:
        CFI Block cfiBlock0 Using cfiCommon0
        CFI Function green_room_init
        CODE
        ; Saved register size: 0
        ; Auto size: 0
//   21   P0SEL &= ~BV(1);
        ANL     0xf3,#0xfd
//   22   P0DIR |= BV(1);
        ORL     0xfd,#0x2
//   23   P0_1 = 1;
        SETB    0x80.1
//   24   
//   25   P0SEL &= ~BV(3);
        ANL     0xf3,#0xf7
//   26   P0DIR |= BV(3);
        ORL     0xfd,#0x8
//   27   P0_3 = 1;
        SETB    0x80.3
//   28 }
        LJMP    ?BRET
        CFI EndBlock cfiBlock0
        REQUIRE P0SEL
        REQUIRE P0DIR
        REQUIRE _A_P0

        RSEG BANKED_CODE:CODE:NOROOT(0)
//   29 void green_room_control( void ){
green_room_control:
        CFI Block cfiBlock1 Using cfiCommon0
        CFI Function green_room_control
        CODE
        FUNCALL green_room_control, open_all_led
        LOCFRAME ISTACK, 2, STACK
        LOCFRAME PSTACK, 0, STACK
        LOCFRAME XSTACK, 0, STACK
        LOCFRAME IOVERLAY, 0, STATIC
        LOCFRAME DOVERLAY, 0, STATIC
        ARGFRAME ISTACK, 2, STACK
        ARGFRAME PSTACK, 0, STACK
        ARGFRAME XSTACK, 0, STACK
        ARGFRAME IOVERLAY, 0, STATIC
        ARGFRAME DOVERLAY, 0, STATIC
        FUNCALL green_room_control, open_half_led
        LOCFRAME ISTACK, 2, STACK
        LOCFRAME PSTACK, 0, STACK
        LOCFRAME XSTACK, 0, STACK
        LOCFRAME IOVERLAY, 0, STATIC
        LOCFRAME DOVERLAY, 0, STATIC
        ARGFRAME ISTACK, 2, STACK
        ARGFRAME PSTACK, 0, STACK
        ARGFRAME XSTACK, 0, STACK
        ARGFRAME IOVERLAY, 0, STATIC
        ARGFRAME DOVERLAY, 0, STATIC
        FUNCALL green_room_control, close_led
        LOCFRAME ISTACK, 2, STACK
        LOCFRAME PSTACK, 0, STACK
        LOCFRAME XSTACK, 0, STACK
        LOCFRAME IOVERLAY, 0, STATIC
        LOCFRAME DOVERLAY, 0, STATIC
        ARGFRAME ISTACK, 2, STACK
        ARGFRAME PSTACK, 0, STACK
        ARGFRAME XSTACK, 0, STACK
        ARGFRAME IOVERLAY, 0, STATIC
        ARGFRAME DOVERLAY, 0, STATIC
        PUSH    DPL
        CFI DPL0 Frame(CFA_SP, 4)
        CFI CFA_SP SP+-4
        PUSH    DPH
        CFI DPH0 Frame(CFA_SP, 5)
        CFI CFA_SP SP+-5
        ; Saved register size: 2
        ; Auto size: 0
//   30 	
//   31   if ( body_state && switch_state ) {
        MOV     DPTR,#body_state
        MOVX    A,@DPTR
        JZ      ??green_room_control_0
        MOV     DPTR,#switch_state
        MOVX    A,@DPTR
        JZ      ??green_room_control_0
//   32     switch ( light_state ) {
        MOV     DPTR,#light_state
        MOVX    A,@DPTR
        DEC     A
        JZ      ??green_room_control_1
        DEC     A
        JZ      ??green_room_control_2
        ADD     A,#-0x2
        JZ      ??green_room_control_0
        SJMP    ??green_room_control_3
//   33         case LIGHT_LOW_STATE :
//   34           open_all_led();
??green_room_control_1:
        ; Setup parameters for call to function open_all_led
        LCALL   ??open_all_led?relay
//   35           break;
        SJMP    ??green_room_control_3
//   36         case LIGHT_MID_STATE :
//   37           open_half_led();
??green_room_control_2:
        ; Setup parameters for call to function open_half_led
        LCALL   ??open_half_led?relay
//   38           break;
        SJMP    ??green_room_control_3
//   39         case LIGHT_HIGH_STATE :
//   40           close_led();
??green_room_control_0:
        ; Setup parameters for call to function close_led
        LCALL   ??close_led?relay
//   41           break;
//   42     }
//   43   } else {
//   44     close_led();
//   45   }
//   46   
//   47   if ( !body_state && !switch_state ) {
??green_room_control_3:
        MOV     DPTR,#body_state
        MOVX    A,@DPTR
        JNZ     ??green_room_control_4
        MOV     DPTR,#switch_state
        MOVX    A,@DPTR
        JNZ     ??green_room_control_4
//   48     switch_state = true;
        MOV     A,#0x1
        MOVX    @DPTR,A
//   49   }
//   50   
//   51 }
??green_room_control_4:
        SJMP    ??Subroutine2_0
        CFI EndBlock cfiBlock1
//   52 
//   53 

        RSEG BANKED_CODE:CODE:NOROOT(0)
?Subroutine0:
        CFI Block cfiBlock2 Using cfiCommon0
        CFI NoFunction
        CFI CFA_SP SP+-5
        CFI DPL0 Frame(CFA_SP, 4)
        CFI DPH0 Frame(CFA_SP, 5)
        SETB    0x80.3
        CFI EndBlock cfiBlock2
        REQUIRE ??Subroutine2_0
        ; // Fall through to label ??Subroutine2_0

        RSEG BANKED_CODE:CODE:NOROOT(0)
??Subroutine2_0:
        CFI Block cfiBlock3 Using cfiCommon0
        CFI NoFunction
        CFI CFA_SP SP+-5
        CFI DPL0 Frame(CFA_SP, 4)
        CFI DPH0 Frame(CFA_SP, 5)
        POP     DPH
        CFI CFA_SP SP+-4
        CFI DPH0 SameValue
        POP     DPL
        CFI CFA_SP SP+-3
        CFI DPL0 SameValue
        LJMP    ?BRET
        CFI EndBlock cfiBlock3

        RSEG BANKED_CODE:CODE:NOROOT(0)
//   54 void open_half_led() {
open_half_led:
        CFI Block cfiBlock4 Using cfiCommon0
        CFI Function open_half_led
        CODE
        FUNCALL open_half_led, HalLedSet
        LOCFRAME ISTACK, 2, STACK
        LOCFRAME PSTACK, 0, STACK
        LOCFRAME XSTACK, 0, STACK
        LOCFRAME IOVERLAY, 0, STATIC
        LOCFRAME DOVERLAY, 0, STATIC
        ARGFRAME ISTACK, 2, STACK
        ARGFRAME PSTACK, 0, STACK
        ARGFRAME XSTACK, 0, STACK
        ARGFRAME IOVERLAY, 0, STATIC
        ARGFRAME DOVERLAY, 0, STATIC
        PUSH    DPL
        CFI DPL0 Frame(CFA_SP, 4)
        CFI CFA_SP SP+-4
        PUSH    DPH
        CFI DPH0 Frame(CFA_SP, 5)
        CFI CFA_SP SP+-5
        ; Saved register size: 2
        ; Auto size: 0
//   55     led_state = true;
        LCALL   ?Subroutine1 & 0xFFFF
//   56     HalLedSet( HAL_LED_1, led_state ); 
//   57     P0_1 = 0;
//   58     P0_3 = 1;
??CrossCallReturnLabel_0:
        SJMP    ?Subroutine0
        CFI EndBlock cfiBlock4
        REQUIRE _A_P0
//   59 }
//   60 

        RSEG BANKED_CODE:CODE:NOROOT(0)
//   61 void close_led() {
close_led:
        CFI Block cfiBlock5 Using cfiCommon0
        CFI Function close_led
        CODE
        FUNCALL close_led, HalLedSet
        LOCFRAME ISTACK, 2, STACK
        LOCFRAME PSTACK, 0, STACK
        LOCFRAME XSTACK, 0, STACK
        LOCFRAME IOVERLAY, 0, STATIC
        LOCFRAME DOVERLAY, 0, STATIC
        ARGFRAME ISTACK, 2, STACK
        ARGFRAME PSTACK, 0, STACK
        ARGFRAME XSTACK, 0, STACK
        ARGFRAME IOVERLAY, 0, STATIC
        ARGFRAME DOVERLAY, 0, STATIC
        PUSH    DPL
        CFI DPL0 Frame(CFA_SP, 4)
        CFI CFA_SP SP+-4
        PUSH    DPH
        CFI DPH0 Frame(CFA_SP, 5)
        CFI CFA_SP SP+-5
        ; Saved register size: 2
        ; Auto size: 0
//   62     led_state = false;
        MOV     DPTR,#led_state
        CLR     A
        MOVX    @DPTR,A
//   63     HalLedSet( HAL_LED_1, led_state );
        ; Setup parameters for call to function HalLedSet
        MOV     R2,A
        MOV     R1,#0x1
        LCALL   ??HalLedSet?relay
//   64     P0_1 = 1;
        SETB    0x80.1
//   65     P0_3 = 1;
        SJMP    ?Subroutine0
        CFI EndBlock cfiBlock5
        REQUIRE _A_P0
//   66 }
//   67 

        RSEG BANKED_CODE:CODE:NOROOT(0)
//   68 void open_all_led() {
open_all_led:
        CFI Block cfiBlock6 Using cfiCommon0
        CFI Function open_all_led
        CODE
        FUNCALL open_all_led, HalLedSet
        LOCFRAME ISTACK, 2, STACK
        LOCFRAME PSTACK, 0, STACK
        LOCFRAME XSTACK, 0, STACK
        LOCFRAME IOVERLAY, 0, STATIC
        LOCFRAME DOVERLAY, 0, STATIC
        ARGFRAME ISTACK, 2, STACK
        ARGFRAME PSTACK, 0, STACK
        ARGFRAME XSTACK, 0, STACK
        ARGFRAME IOVERLAY, 0, STATIC
        ARGFRAME DOVERLAY, 0, STATIC
        PUSH    DPL
        CFI DPL0 Frame(CFA_SP, 4)
        CFI CFA_SP SP+-4
        PUSH    DPH
        CFI DPH0 Frame(CFA_SP, 5)
        CFI CFA_SP SP+-5
        ; Saved register size: 2
        ; Auto size: 0
//   69     led_state = true;
        LCALL   ?Subroutine1 & 0xFFFF
//   70     HalLedSet( HAL_LED_1, led_state ); 
//   71     P0_1 = 0;
//   72     P0_3 = 0;
??CrossCallReturnLabel_1:
        CLR     0x80.3
//   73 }
        SJMP    ??Subroutine2_0
        CFI EndBlock cfiBlock6
        REQUIRE _A_P0

        RSEG BANKED_CODE:CODE:NOROOT(0)
?Subroutine1:
        CFI Block cfiCond7 Using cfiCommon0
        CFI NoFunction
        CFI Conditional ??CrossCallReturnLabel_0
        CFI DPL0 Frame(CFA_SP, 4)
        CFI DPH0 Frame(CFA_SP, 5)
        CFI CFA_SP SP+-5
        CFI Block cfiCond8 Using cfiCommon0
        CFI (cfiCond8) NoFunction
        CFI (cfiCond8) Conditional ??CrossCallReturnLabel_1
        CFI (cfiCond8) DPL0 Frame(CFA_SP, 4)
        CFI (cfiCond8) DPH0 Frame(CFA_SP, 5)
        CFI (cfiCond8) CFA_SP SP+-5
        CFI Block cfiPicker9 Using cfiCommon1
        CFI (cfiPicker9) NoFunction
        CFI (cfiPicker9) Picker
        MOV     DPTR,#led_state
        MOV     A,#0x1
        MOVX    @DPTR,A
        ; Setup parameters for call to function HalLedSet
        ; Setup parameters for call to function HalLedSet
        MOV     R2,A
        MOV     R1,A
        LCALL   ??HalLedSet?relay
        CLR     0x80.1
        RET
        CFI EndBlock cfiCond7
        CFI EndBlock cfiCond8
        CFI EndBlock cfiPicker9

        RSEG BANK_RELAYS:CODE:REORDER:NOROOT(0)
??green_room_init?relay:
        LCALL   ?BDISPATCH
        DATA
        DC24    green_room_init

        RSEG BANK_RELAYS:CODE:REORDER:NOROOT(0)
??green_room_control?relay:
        LCALL   ?BDISPATCH
        DATA
        DC24    green_room_control

        RSEG BANK_RELAYS:CODE:REORDER:NOROOT(0)
??open_half_led?relay:
        LCALL   ?BDISPATCH
        DATA
        DC24    open_half_led

        RSEG BANK_RELAYS:CODE:REORDER:NOROOT(0)
??close_led?relay:
        LCALL   ?BDISPATCH
        DATA
        DC24    close_led

        RSEG BANK_RELAYS:CODE:REORDER:NOROOT(0)
??open_all_led?relay:
        LCALL   ?BDISPATCH
        DATA
        DC24    open_all_led

        END
// 
// 143 bytes in segment BANKED_CODE
//  30 bytes in segment BANK_RELAYS
//   3 bytes in segment SFR_AN
//   4 bytes in segment XDATA_Z
// 
// 173 bytes of CODE  memory
//   0 bytes of DATA  memory (+ 3 bytes shared)
//   4 bytes of XDATA memory
//
//Errors: none
//Warnings: none
