///////////////////////////////////////////////////////////////////////////////
//                                                                            /
// IAR C/C++ Compiler V8.10.3.10338/W32 for 8051        25/Nov/2017  22:13:50 /
// Copyright 2004-2011 IAR Systems AB.                                        /
//                                                                            /
//    Core               =  plain                                             /
//    Code model         =  banked                                            /
//    Data model         =  large                                             /
//    Calling convention =  xdata reentrant                                   /
//    Constant location  =  data_rom                                          /
//    Dptr setup         =  1,16                                              /
//    Source file        =  D:\FileInstall\ZStack-CC2530-2.5.1a_GreenRoom\Pro /
//                          jects\zstack\Samples\GreenClassroom_NetWork       /
//                          2.1\Source\hal_switch_detect.c                    /
//    Command line       =  -f "D:\FileInstall\ZStack-CC2530-2.5.1a_GreenRoom /
//                          \Projects\zstack\Samples\GreenClassroom_NetWork   /
//                          2.1\CC2530DB\..\..\..\Tools\CC2530DB\f8wEndev.cfg /
//                          " (-DCPU32MHZ -DROOT=__near_func                  /
//                          -DMAC_CFG_TX_DATA_MAX=3 -DMAC_CFG_TX_MAX=6        /
//                          -DMAC_CFG_RX_MAX=3) -f "D:\FileInstall\ZStack-CC2 /
//                          530-2.5.1a_GreenRoom\Projects\zstack\Samples\Gree /
//                          nClassroom_NetWork 2.1\CC2530DB\..\..\..\Tools\CC /
//                          2530DB\f8wConfig.cfg" (-DZIGBEEPRO -DSECURE=0     /
//                          -DZG_SECURE_DYNAMIC=0 -DREFLECTOR                 /
//                          -DDEFAULT_CHANLIST=0x00000800                     /
//                          -DZDAPP_CONFIG_PAN_ID=0xFFFF                      /
//                          -DNWK_START_DELAY=100 -DEXTENDED_JOINING_RANDOM_M /
//                          ASK=0x007F -DBEACON_REQUEST_DELAY=100             /
//                          -DBEACON_REQ_DELAY_MASK=0x00FF                    /
//                          -DLINK_STATUS_JITTER_MASK=0x007F                  /
//                          -DROUTE_EXPIRY_TIME=30 -DAPSC_ACK_WAIT_DURATION_P /
//                          OLLED=3000 -DNWK_INDIRECT_MSG_TIMEOUT=7           /
//                          -DMAX_RREQ_ENTRIES=8 -DAPSC_MAX_FRAME_RETRIES=3   /
//                          -DNWK_MAX_DATA_RETRIES=2                          /
//                          -DMAX_POLL_FAILURE_RETRIES=2 -DMAX_BCAST=9        /
//                          -DAPS_MAX_GROUPS=16 -DMAX_RTG_ENTRIES=40          /
//                          -DNWK_MAX_BINDING_ENTRIES=4                       /
//                          -DMAX_BINDING_CLUSTER_IDS=4                       /
//                          "-DDEFAULT_KEY={0x01, 0x03, 0x05, 0x07, 0x09,     /
//                          0x0B, 0x0D, 0x0F, 0x00, 0x02, 0x04, 0x06, 0x08,   /
//                          0x0A, 0x0C, 0x0D}" -DMAC_MAX_FRAME_SIZE=116       /
//                          -DZDNWKMGR_MIN_TRANSMISSIONS=20 "-DCONST=const    /
//                          __code" -DGENERIC=__generic                       /
//                          -DRFD_RCVC_ALWAYS_ON=FALSE -DPOLL_RATE=1000       /
//                          -DQUEUED_POLL_RATE=100 -DRESPONSE_POLL_RATE=100)  /
//                          -DREJOIN_POLL_RATE=440 "D:\FileInstall\ZStack-CC2 /
//                          530-2.5.1a_GreenRoom\Projects\zstack\Samples\Gree /
//                          nClassroom_NetWork 2.1\Source\hal_switch_detect.c /
//                          " -D NWK_AUTO_POLL -D ZTOOL_P1 -D MT_TASK -D      /
//                          MT_SYS_FUNC -D MT_ZDO_FUNC -D                     /
//                          LCD_SUPPORTED=DEBUG -D xPOWER_SAVING -lC          /
//                          "D:\FileInstall\ZStack-CC2530-2.5.1a_GreenRoom\Pr /
//                          ojects\zstack\Samples\GreenClassroom_NetWork      /
//                          2.1\CC2530DB\EndDeviceEB\List\" -lA               /
//                          "D:\FileInstall\ZStack-CC2530-2.5.1a_GreenRoom\Pr /
//                          ojects\zstack\Samples\GreenClassroom_NetWork      /
//                          2.1\CC2530DB\EndDeviceEB\List\" --diag_suppress   /
//                          Pe001,Pa010 -o "D:\FileInstall\ZStack-CC2530-2.5. /
//                          1a_GreenRoom\Projects\zstack\Samples\GreenClassro /
//                          om_NetWork 2.1\CC2530DB\EndDeviceEB\Obj\" -e      /
//                          --no_code_motion --debug --core=plain             /
//                          --dptr=16,1 --data_model=large                    /
//                          --code_model=banked --calling_convention=xdata_re /
//                          entrant --place_constants=data_rom                /
//                          --nr_virtual_regs 16 -I                           /
//                          "D:\FileInstall\ZStack-CC2530-2.5.1a_GreenRoom\Pr /
//                          ojects\zstack\Samples\GreenClassroom_NetWork      /
//                          2.1\CC2530DB\" -I "D:\FileInstall\ZStack-CC2530-2 /
//                          .5.1a_GreenRoom\Projects\zstack\Samples\GreenClas /
//                          sroom_NetWork 2.1\CC2530DB\..\Source\" -I         /
//                          "D:\FileInstall\ZStack-CC2530-2.5.1a_GreenRoom\Pr /
//                          ojects\zstack\Samples\GreenClassroom_NetWork      /
//                          2.1\CC2530DB\..\..\..\ZMain\TI2530DB\" -I         /
//                          "D:\FileInstall\ZStack-CC2530-2.5.1a_GreenRoom\Pr /
//                          ojects\zstack\Samples\GreenClassroom_NetWork      /
//                          2.1\CC2530DB\..\..\..\..\..\Components\hal\includ /
//                          e\" -I "D:\FileInstall\ZStack-CC2530-2.5.1a_Green /
//                          Room\Projects\zstack\Samples\GreenClassroom_NetWo /
//                          rk 2.1\CC2530DB\..\..\..\..\..\Components\hal\tar /
//                          get\CC2530EB\" -I "D:\FileInstall\ZStack-CC2530-2 /
//                          .5.1a_GreenRoom\Projects\zstack\Samples\GreenClas /
//                          sroom_NetWork 2.1\CC2530DB\..\..\..\..\..\Compone /
//                          nts\mac\include\" -I "D:\FileInstall\ZStack-CC253 /
//                          0-2.5.1a_GreenRoom\Projects\zstack\Samples\GreenC /
//                          lassroom_NetWork 2.1\CC2530DB\..\..\..\..\..\Comp /
//                          onents\mac\high_level\" -I                        /
//                          "D:\FileInstall\ZStack-CC2530-2.5.1a_GreenRoom\Pr /
//                          ojects\zstack\Samples\GreenClassroom_NetWork      /
//                          2.1\CC2530DB\..\..\..\..\..\Components\mac\low_le /
//                          vel\srf04\" -I "D:\FileInstall\ZStack-CC2530-2.5. /
//                          1a_GreenRoom\Projects\zstack\Samples\GreenClassro /
//                          om_NetWork 2.1\CC2530DB\..\..\..\..\..\Components /
//                          \mac\low_level\srf04\single_chip\" -I             /
//                          "D:\FileInstall\ZStack-CC2530-2.5.1a_GreenRoom\Pr /
//                          ojects\zstack\Samples\GreenClassroom_NetWork      /
//                          2.1\CC2530DB\..\..\..\..\..\Components\mt\" -I    /
//                          "D:\FileInstall\ZStack-CC2530-2.5.1a_GreenRoom\Pr /
//                          ojects\zstack\Samples\GreenClassroom_NetWork      /
//                          2.1\CC2530DB\..\..\..\..\..\Components\osal\inclu /
//                          de\" -I "D:\FileInstall\ZStack-CC2530-2.5.1a_Gree /
//                          nRoom\Projects\zstack\Samples\GreenClassroom_NetW /
//                          ork 2.1\CC2530DB\..\..\..\..\..\Components\servic /
//                          es\saddr\" -I "D:\FileInstall\ZStack-CC2530-2.5.1 /
//                          a_GreenRoom\Projects\zstack\Samples\GreenClassroo /
//                          m_NetWork 2.1\CC2530DB\..\..\..\..\..\Components\ /
//                          services\sdata\" -I "D:\FileInstall\ZStack-CC2530 /
//                          -2.5.1a_GreenRoom\Projects\zstack\Samples\GreenCl /
//                          assroom_NetWork 2.1\CC2530DB\..\..\..\..\..\Compo /
//                          nents\stack\af\" -I "D:\FileInstall\ZStack-CC2530 /
//                          -2.5.1a_GreenRoom\Projects\zstack\Samples\GreenCl /
//                          assroom_NetWork 2.1\CC2530DB\..\..\..\..\..\Compo /
//                          nents\stack\nwk\" -I "D:\FileInstall\ZStack-CC253 /
//                          0-2.5.1a_GreenRoom\Projects\zstack\Samples\GreenC /
//                          lassroom_NetWork 2.1\CC2530DB\..\..\..\..\..\Comp /
//                          onents\stack\sapi\" -I "D:\FileInstall\ZStack-CC2 /
//                          530-2.5.1a_GreenRoom\Projects\zstack\Samples\Gree /
//                          nClassroom_NetWork 2.1\CC2530DB\..\..\..\..\..\Co /
//                          mponents\stack\sec\" -I                           /
//                          "D:\FileInstall\ZStack-CC2530-2.5.1a_GreenRoom\Pr /
//                          ojects\zstack\Samples\GreenClassroom_NetWork      /
//                          2.1\CC2530DB\..\..\..\..\..\Components\stack\sys\ /
//                          " -I "D:\FileInstall\ZStack-CC2530-2.5.1a_GreenRo /
//                          om\Projects\zstack\Samples\GreenClassroom_NetWork /
//                           2.1\CC2530DB\..\..\..\..\..\Components\stack\zdo /
//                          \" -I "D:\FileInstall\ZStack-CC2530-2.5.1a_GreenR /
//                          oom\Projects\zstack\Samples\GreenClassroom_NetWor /
//                          k 2.1\CC2530DB\..\..\..\..\..\Components\zmac\"   /
//                          -I "D:\FileInstall\ZStack-CC2530-2.5.1a_GreenRoom /
//                          \Projects\zstack\Samples\GreenClassroom_NetWork   /
//                          2.1\CC2530DB\..\..\..\..\..\Components\zmac\f8w\" /
//                           -Ohz --require_prototypes                        /
//    List file          =  D:\FileInstall\ZStack-CC2530-2.5.1a_GreenRoom\Pro /
//                          jects\zstack\Samples\GreenClassroom_NetWork       /
//                          2.1\CC2530DB\EndDeviceEB\List\hal_switch_detect.s /
//                          51                                                /
//                                                                            /
//                                                                            /
///////////////////////////////////////////////////////////////////////////////

        NAME hal_switch_detect

        RTMODEL "__SystemLibrary", "CLib"
        RTMODEL "__calling_convention", "xdata_reentrant"
        RTMODEL "__code_model", "banked"
        RTMODEL "__core", "plain"
        RTMODEL "__data_model", "large"
        RTMODEL "__dptr_size", "16"
        RTMODEL "__extended_stack", "disabled"
        RTMODEL "__location_for_constants", "data"
        RTMODEL "__number_of_dptrs", "1"
        RTMODEL "__rt_version", "1"

        RSEG DOVERLAY:DATA:NOROOT(0)
        RSEG IOVERLAY:IDATA:NOROOT(0)
        RSEG ISTACK:IDATA:NOROOT(0)
        RSEG PSTACK:XDATA:NOROOT(0)
        RSEG XSTACK:XDATA:NOROOT(0)

        EXTERN ?BANKED_ENTER_XDATA
        EXTERN ?BANKED_LEAVE_XDATA
        EXTERN ?BDISPATCH
        EXTERN ?BRET
        EXTERN __INIT_XDATA_Z

        PUBLIC ??hal_disturb_read?relay
        FUNCTION ??hal_disturb_read?relay,0203H
        PUBLIC ??hal_switch_detect_init?relay
        FUNCTION ??hal_switch_detect_init?relay,0203H
        PUBLIC ??hal_switch_detect_state_machine?relay
        FUNCTION ??hal_switch_detect_state_machine?relay,0203H
        PUBWEAK P0DIR
        PUBWEAK P0INP
        PUBWEAK P0SEL
        PUBWEAK _A_P0
        PUBLIC hal_disturb_read
        FUNCTION hal_disturb_read,0203H
        ARGFRAME XSTACK, 0, STACK
        PUBLIC hal_switch_detect_init
        FUNCTION hal_switch_detect_init,0203H
        ARGFRAME XSTACK, 0, STACK
        PUBLIC hal_switch_detect_state_machine
        FUNCTION hal_switch_detect_state_machine,021203H
        ARGFRAME XSTACK, 0, STACK
        LOCFRAME XSTACK, 9, STACK
        PUBLIC pinPreDisturbState
        
        CFI Names cfiNames0
        CFI StackFrame CFA_SP SP IDATA
        CFI StackFrame CFA_PSP16 PSP16 XDATA
        CFI StackFrame CFA_XSP16 XSP16 XDATA
        CFI StaticOverlayFrame CFA_IOVERLAY IOVERLAY
        CFI StaticOverlayFrame CFA_DOVERLAY DOVERLAY
        CFI Resource `PSW.CY`:1, `B.BR0`:1, `B.BR1`:1, `B.BR2`:1, `B.BR3`:1
        CFI Resource `B.BR4`:1, `B.BR5`:1, `B.BR6`:1, `B.BR7`:1, `VB.BR8`:1
        CFI Resource `VB.BR9`:1, `VB.BR10`:1, `VB.BR11`:1, `VB.BR12`:1
        CFI Resource `VB.BR13`:1, `VB.BR14`:1, `VB.BR15`:1, VB:8, B:8, A:8
        CFI Resource PSW:8, DPL0:8, DPH0:8, R0:8, R1:8, R2:8, R3:8, R4:8, R5:8
        CFI Resource R6:8, R7:8, V0:8, V1:8, V2:8, V3:8, V4:8, V5:8, V6:8, V7:8
        CFI Resource V8:8, V9:8, V10:8, V11:8, V12:8, V13:8, V14:8, V15:8, SP:8
        CFI Resource PSPH:8, PSPL:8, PSP16:16, XSPH:8, XSPL:8, XSP16:16
        CFI VirtualResource ?RET:24
        CFI Resource ?BRET_EXT:8
        CFI VirtualResource ?RET_HIGH:8, ?RET_LOW:8
        CFI ResourceParts PSP16 PSPH, PSPL
        CFI ResourceParts XSP16 XSPH, XSPL
        CFI ResourceParts ?RET ?BRET_EXT, ?RET_HIGH, ?RET_LOW
        CFI EndNames cfiNames0
        
        CFI Common cfiCommon0 Using cfiNames0
        CFI CodeAlign 1
        CFI DataAlign -1
        CFI ReturnAddress ?RET CODE
        CFI CFA_DOVERLAY Used
        CFI CFA_IOVERLAY Used
        CFI CFA_SP SP+-3
        CFI CFA_PSP16 PSP16+0
        CFI CFA_XSP16 XSP16+0
        CFI `PSW.CY` SameValue
        CFI `B.BR0` SameValue
        CFI `B.BR1` SameValue
        CFI `B.BR2` SameValue
        CFI `B.BR3` SameValue
        CFI `B.BR4` SameValue
        CFI `B.BR5` SameValue
        CFI `B.BR6` SameValue
        CFI `B.BR7` SameValue
        CFI `VB.BR8` SameValue
        CFI `VB.BR9` SameValue
        CFI `VB.BR10` SameValue
        CFI `VB.BR11` SameValue
        CFI `VB.BR12` SameValue
        CFI `VB.BR13` SameValue
        CFI `VB.BR14` SameValue
        CFI `VB.BR15` SameValue
        CFI VB SameValue
        CFI B Undefined
        CFI A Undefined
        CFI PSW SameValue
        CFI DPL0 SameValue
        CFI DPH0 SameValue
        CFI R0 Undefined
        CFI R1 Undefined
        CFI R2 Undefined
        CFI R3 Undefined
        CFI R4 Undefined
        CFI R5 Undefined
        CFI R6 SameValue
        CFI R7 SameValue
        CFI V0 SameValue
        CFI V1 SameValue
        CFI V2 SameValue
        CFI V3 SameValue
        CFI V4 SameValue
        CFI V5 SameValue
        CFI V6 SameValue
        CFI V7 SameValue
        CFI V8 SameValue
        CFI V9 SameValue
        CFI V10 SameValue
        CFI V11 SameValue
        CFI V12 SameValue
        CFI V13 SameValue
        CFI V14 SameValue
        CFI V15 SameValue
        CFI PSPH Undefined
        CFI PSPL Undefined
        CFI XSPH Undefined
        CFI XSPL Undefined
        CFI ?RET Concat
        CFI ?BRET_EXT Frame(CFA_SP, 3)
        CFI ?RET_HIGH Frame(CFA_SP, 2)
        CFI ?RET_LOW Frame(CFA_SP, 1)
        CFI EndCommon cfiCommon0
        
osal_set_event      SYMBOL "osal_set_event"
??osal_set_event?relay SYMBOL "?relay", osal_set_event
hal_disturb_read    SYMBOL "hal_disturb_read"
??hal_disturb_read?relay SYMBOL "?relay", hal_disturb_read
hal_switch_detect_init SYMBOL "hal_switch_detect_init"
??hal_switch_detect_init?relay SYMBOL "?relay", hal_switch_detect_init
hal_switch_detect_state_machine SYMBOL "hal_switch_detect_state_machine"
??hal_switch_detect_state_machine?relay SYMBOL "?relay", hal_switch_detect_state_machine

        EXTERN osal_set_event
        FUNCTION osal_set_event,0202H
        ARGFRAME ISTACK, 0, STACK
        ARGFRAME PSTACK, 0, STACK
        ARGFRAME XSTACK, 9, STACK
        ARGFRAME IOVERLAY, 0, STATIC
        ARGFRAME DOVERLAY, 0, STATIC
        EXTERN ??osal_set_event?relay
        FUNCTION ??osal_set_event?relay,00H
        EXTERN GenericApp_TaskID
        EXTERN switch_state

// D:\FileInstall\ZStack-CC2530-2.5.1a_GreenRoom\Projects\zstack\Samples\GreenClassroom_NetWork 2.1\Source\hal_switch_detect.c
//    1 #include "hal_drivers.h"
//    2 #include "hal_switch_detect.h"
//    3 #include "iocc2530.h"

        ASEGN SFR_AN:DATA:NOROOT,080H
// union <unnamed> volatile __sfr _A_P0
_A_P0:
        DATA8
        DS 1

        ASEGN SFR_AN:DATA:NOROOT,08fH
// unsigned char volatile __sfr P0INP
P0INP:
        DATA8
        DS 1

        ASEGN SFR_AN:DATA:NOROOT,0f3H
// unsigned char volatile __sfr P0SEL
P0SEL:
        DATA8
        DS 1

        ASEGN SFR_AN:DATA:NOROOT,0fdH
// unsigned char volatile __sfr P0DIR
P0DIR:
        DATA8
        DS 1
//    4 #include "osal.h"
//    5 #include "hal_mcu.h"
//    6 #include "body_detect_events.h"
//    7 #include "hal_step_motor.h"
//    8 #include "hal_led.h"
//    9 #include "GreenRoom.h"
//   10 
//   11 extern bool led_state;  //当前教室灯光工作状态
//   12 extern uint8 GenericApp_TaskID;

        RSEG XDATA_Z:XDATA:NOROOT(0)
        DATA8
//   13 bool pinPreDisturbState = false; 
pinPreDisturbState:
        DS 1
        REQUIRE __INIT_XDATA_Z
//   14  

        RSEG BANKED_CODE:CODE:NOROOT(0)
//   15 void hal_switch_detect_init( void )
hal_switch_detect_init:
        CFI Block cfiBlock0 Using cfiCommon0
        CFI Function hal_switch_detect_init
        CODE
//   16 {
        ; Saved register size: 0
        ; Auto size: 0
//   17 /***********************    说明   ******************************************* 
//   18 ******************************************************************************/
//   19   // 该引脚接收开关的信号--》模拟教室的开关
//   20   P0SEL &= ~BV(5); // 设置P0_5引脚功能为通用I/O
        ANL     0xf3,#0xdf
//   21   P0DIR &= ~BV(5); 
        ANL     0xfd,#0xdf
//   22   P0INP &= ~BV(5);
        ANL     0x8f,#0xdf
//   23 }
        LJMP    ?BRET
        CFI EndBlock cfiBlock0
        REQUIRE P0SEL
        REQUIRE P0DIR
        REQUIRE P0INP
//   24 

        RSEG BANKED_CODE:CODE:NOROOT(0)
//   25 void hal_switch_detect_state_machine( void )
hal_switch_detect_state_machine:
        CFI Block cfiBlock1 Using cfiCommon0
        CFI Function hal_switch_detect_state_machine
        CODE
//   26 {
        FUNCALL hal_switch_detect_state_machine, osal_set_event
        LOCFRAME ISTACK, 0, STACK
        LOCFRAME PSTACK, 0, STACK
        LOCFRAME XSTACK, 9, STACK
        LOCFRAME IOVERLAY, 0, STATIC
        LOCFRAME DOVERLAY, 0, STATIC
        ARGFRAME ISTACK, 0, STACK
        ARGFRAME PSTACK, 0, STACK
        ARGFRAME XSTACK, 9, STACK
        ARGFRAME IOVERLAY, 0, STATIC
        ARGFRAME DOVERLAY, 0, STATIC
        FUNCALL hal_switch_detect_state_machine, osal_set_event
        LOCFRAME ISTACK, 0, STACK
        LOCFRAME PSTACK, 0, STACK
        LOCFRAME XSTACK, 9, STACK
        LOCFRAME IOVERLAY, 0, STATIC
        LOCFRAME DOVERLAY, 0, STATIC
        ARGFRAME ISTACK, 0, STACK
        ARGFRAME PSTACK, 0, STACK
        ARGFRAME XSTACK, 9, STACK
        ARGFRAME IOVERLAY, 0, STATIC
        ARGFRAME DOVERLAY, 0, STATIC
        MOV     A,#-0x9
        LCALL   ?BANKED_ENTER_XDATA
        CFI DPH0 load(1, XDATA, add(CFA_XSP16, literal(-1)))
        CFI DPL0 load(1, XDATA, add(CFA_XSP16, literal(-2)))
        CFI ?BRET_EXT load(1, XDATA, add(CFA_XSP16, literal(-3)))
        CFI ?RET_HIGH load(1, XDATA, add(CFA_XSP16, literal(-4)))
        CFI ?RET_LOW load(1, XDATA, add(CFA_XSP16, literal(-5)))
        CFI R7 load(1, XDATA, add(CFA_XSP16, literal(-6)))
        CFI V0 load(1, XDATA, add(CFA_XSP16, literal(-7)))
        CFI VB load(1, XDATA, add(CFA_XSP16, literal(-8)))
        CFI R6 load(1, XDATA, add(CFA_XSP16, literal(-9)))
        CFI CFA_SP SP+0
        CFI CFA_XSP16 add(XSP16, 9)
        ; Saved register size: 9
        ; Auto size: 0
//   27     
//   28   bool pinDisturbState;
//   29   pinDisturbState = hal_disturb_read();
        MOV     C,0x80.5
        CLR     A
        RLC     A
        MOV     R6,A
//   30   
//   31   // 进行了人为开关切换,将状态切换到人为干扰状态
//   32   if (pinPreDisturbState != pinDisturbState) {
        MOV     DPTR,#pinPreDisturbState
        MOVX    A,@DPTR
        XRL     A,R6
        JZ      ??hal_switch_detect_state_machine_0
//   33     if ( switch_state ) {
        MOV     DPTR,#switch_state
        MOVX    A,@DPTR
        JZ      ??hal_switch_detect_state_machine_1
//   34         osal_set_event( GenericApp_TaskID, STOP_WORK_EVT );  // 通知应用层“传感器不工作”
        ; Setup parameters for call to function osal_set_event
        MOV     R2,#0x0
        MOV     R3,#0x10
        MOV     DPTR,#GenericApp_TaskID
        MOVX    A,@DPTR
        MOV     R1,A
        LCALL   ??osal_set_event?relay
//   35     } 
//   36     
//   37     if ( !switch_state ){       
        MOV     DPTR,#switch_state
        MOVX    A,@DPTR
        JNZ     ??hal_switch_detect_state_machine_2
//   38       osal_set_event( GenericApp_TaskID, START_WORK_EVT );  // 通知应用层“传感器不工作”
??hal_switch_detect_state_machine_1:
        ; Setup parameters for call to function osal_set_event
        MOV     R2,#0x0
        MOV     R3,#0x20
        MOV     DPTR,#GenericApp_TaskID
        MOVX    A,@DPTR
        MOV     R1,A
        LCALL   ??osal_set_event?relay
//   39     } 
//   40     pinPreDisturbState = pinDisturbState;
??hal_switch_detect_state_machine_2:
        MOV     A,R6
        MOV     DPTR,#pinPreDisturbState
        MOVX    @DPTR,A
//   41   }
//   42   
//   43 }
??hal_switch_detect_state_machine_0:
        MOV     R7,#0x1
        LJMP    ?BANKED_LEAVE_XDATA
        CFI EndBlock cfiBlock1
        REQUIRE _A_P0
//   44 
//   45 // 返回开关

        RSEG BANKED_CODE:CODE:NOROOT(0)
//   46 bool hal_disturb_read( void )
hal_disturb_read:
        CFI Block cfiBlock2 Using cfiCommon0
        CFI Function hal_disturb_read
        CODE
//   47 {
        ; Saved register size: 0
        ; Auto size: 0
//   48   return P0_5;
        MOV     C,0x80.5
        CLR     A
        RLC     A
        MOV     R1,A
        LJMP    ?BRET
        CFI EndBlock cfiBlock2
        REQUIRE _A_P0
//   49 }

        RSEG BANK_RELAYS:CODE:REORDER:NOROOT(0)
??hal_switch_detect_init?relay:
        LCALL   ?BDISPATCH
        DATA
        DC24    hal_switch_detect_init

        RSEG BANK_RELAYS:CODE:REORDER:NOROOT(0)
??hal_switch_detect_state_machine?relay:
        LCALL   ?BDISPATCH
        DATA
        DC24    hal_switch_detect_state_machine

        RSEG BANK_RELAYS:CODE:REORDER:NOROOT(0)
??hal_disturb_read?relay:
        LCALL   ?BDISPATCH
        DATA
        DC24    hal_disturb_read

        END
//   50 
// 
// 83 bytes in segment BANKED_CODE
// 18 bytes in segment BANK_RELAYS
//  4 bytes in segment SFR_AN
//  1 byte  in segment XDATA_Z
// 
// 101 bytes of CODE  memory
//   0 bytes of DATA  memory (+ 4 bytes shared)
//   1 byte  of XDATA memory
//
//Errors: none
//Warnings: none
