###############################################################################
#                                                                             #
# IAR C/C++ Compiler V8.10.3.10338/W32 for 8051         12/Nov/2017  14:45:36 #
# Copyright 2004-2011 IAR Systems AB.                                         #
#                                                                             #
#    Core               =  plain                                              #
#    Code model         =  banked                                             #
#    Data model         =  large                                              #
#    Calling convention =  xdata reentrant                                    #
#    Constant location  =  data_rom                                           #
#    Dptr setup         =  1,16                                               #
#    Source file        =  D:\FileInstall\ZStack-CC2530-2.5.1a_GreenRoom\Proj #
#                          ects\zstack\Samples\GreenClassroom_NetWork\Source\ #
#                          SampleApp.c                                        #
#    Command line       =  -f D:\FileInstall\ZStack-CC2530-2.5.1a_GreenRoom\P #
#                          rojects\zstack\Samples\GreenClassroom_NetWork\CC25 #
#                          30DB\..\..\..\Tools\CC2530DB\f8wEndev.cfg          #
#                          (-DCPU32MHZ -DROOT=__near_func                     #
#                          -DMAC_CFG_TX_DATA_MAX=3 -DMAC_CFG_TX_MAX=6         #
#                          -DMAC_CFG_RX_MAX=3) -f D:\FileInstall\ZStack-CC253 #
#                          0-2.5.1a_GreenRoom\Projects\zstack\Samples\GreenCl #
#                          assroom_NetWork\CC2530DB\..\..\..\Tools\CC2530DB\f #
#                          8wConfig.cfg (-DZIGBEEPRO -DSECURE=0               #
#                          -DZG_SECURE_DYNAMIC=0 -DREFLECTOR                  #
#                          -DDEFAULT_CHANLIST=0x00000800                      #
#                          -DZDAPP_CONFIG_PAN_ID=0xFFFF                       #
#                          -DNWK_START_DELAY=100 -DEXTENDED_JOINING_RANDOM_MA #
#                          SK=0x007F -DBEACON_REQUEST_DELAY=100               #
#                          -DBEACON_REQ_DELAY_MASK=0x00FF                     #
#                          -DLINK_STATUS_JITTER_MASK=0x007F                   #
#                          -DROUTE_EXPIRY_TIME=30 -DAPSC_ACK_WAIT_DURATION_PO #
#                          LLED=3000 -DNWK_INDIRECT_MSG_TIMEOUT=7             #
#                          -DMAX_RREQ_ENTRIES=8 -DAPSC_MAX_FRAME_RETRIES=3    #
#                          -DNWK_MAX_DATA_RETRIES=2                           #
#                          -DMAX_POLL_FAILURE_RETRIES=2 -DMAX_BCAST=9         #
#                          -DAPS_MAX_GROUPS=16 -DMAX_RTG_ENTRIES=40           #
#                          -DNWK_MAX_BINDING_ENTRIES=4                        #
#                          -DMAX_BINDING_CLUSTER_IDS=4 "-DDEFAULT_KEY={0x01,  #
#                          0x03, 0x05, 0x07, 0x09, 0x0B, 0x0D, 0x0F, 0x00,    #
#                          0x02, 0x04, 0x06, 0x08, 0x0A, 0x0C, 0x0D}"         #
#                          -DMAC_MAX_FRAME_SIZE=116                           #
#                          -DZDNWKMGR_MIN_TRANSMISSIONS=20 "-DCONST=const     #
#                          __code" -DGENERIC=__generic                        #
#                          -DRFD_RCVC_ALWAYS_ON=FALSE -DPOLL_RATE=1000        #
#                          -DQUEUED_POLL_RATE=100 -DRESPONSE_POLL_RATE=100)   #
#                          -DREJOIN_POLL_RATE=440 D:\FileInstall\ZStack-CC253 #
#                          0-2.5.1a_GreenRoom\Projects\zstack\Samples\GreenCl #
#                          assroom_NetWork\Source\SampleApp.c -D              #
#                          NWK_AUTO_POLL -D ZTOOL_P1 -D MT_TASK -D            #
#                          MT_SYS_FUNC -D MT_ZDO_FUNC -D LCD_SUPPORTED=DEBUG  #
#                          -D xPOWER_SAVING -lC D:\FileInstall\ZStack-CC2530- #
#                          2.5.1a_GreenRoom\Projects\zstack\Samples\GreenClas #
#                          sroom_NetWork\CC2530DB\EndDeviceEB\List\ -lA       #
#                          D:\FileInstall\ZStack-CC2530-2.5.1a_GreenRoom\Proj #
#                          ects\zstack\Samples\GreenClassroom_NetWork\CC2530D #
#                          B\EndDeviceEB\List\ --diag_suppress Pe001,Pa010    #
#                          -o D:\FileInstall\ZStack-CC2530-2.5.1a_GreenRoom\P #
#                          rojects\zstack\Samples\GreenClassroom_NetWork\CC25 #
#                          30DB\EndDeviceEB\Obj\ -e --no_code_motion --debug  #
#                          --core=plain --dptr=16,1 --data_model=large        #
#                          --code_model=banked --calling_convention=xdata_ree #
#                          ntrant --place_constants=data_rom                  #
#                          --nr_virtual_regs 16 -I D:\FileInstall\ZStack-CC25 #
#                          30-2.5.1a_GreenRoom\Projects\zstack\Samples\GreenC #
#                          lassroom_NetWork\CC2530DB\ -I                      #
#                          D:\FileInstall\ZStack-CC2530-2.5.1a_GreenRoom\Proj #
#                          ects\zstack\Samples\GreenClassroom_NetWork\CC2530D #
#                          B\..\Source\ -I D:\FileInstall\ZStack-CC2530-2.5.1 #
#                          a_GreenRoom\Projects\zstack\Samples\GreenClassroom #
#                          _NetWork\CC2530DB\..\..\..\ZMain\TI2530DB\ -I      #
#                          D:\FileInstall\ZStack-CC2530-2.5.1a_GreenRoom\Proj #
#                          ects\zstack\Samples\GreenClassroom_NetWork\CC2530D #
#                          B\..\..\..\..\..\Components\hal\include\ -I        #
#                          D:\FileInstall\ZStack-CC2530-2.5.1a_GreenRoom\Proj #
#                          ects\zstack\Samples\GreenClassroom_NetWork\CC2530D #
#                          B\..\..\..\..\..\Components\hal\target\CC2530EB\   #
#                          -I D:\FileInstall\ZStack-CC2530-2.5.1a_GreenRoom\P #
#                          rojects\zstack\Samples\GreenClassroom_NetWork\CC25 #
#                          30DB\..\..\..\..\..\Components\mac\include\ -I     #
#                          D:\FileInstall\ZStack-CC2530-2.5.1a_GreenRoom\Proj #
#                          ects\zstack\Samples\GreenClassroom_NetWork\CC2530D #
#                          B\..\..\..\..\..\Components\mac\high_level\ -I     #
#                          D:\FileInstall\ZStack-CC2530-2.5.1a_GreenRoom\Proj #
#                          ects\zstack\Samples\GreenClassroom_NetWork\CC2530D #
#                          B\..\..\..\..\..\Components\mac\low_level\srf04\   #
#                          -I D:\FileInstall\ZStack-CC2530-2.5.1a_GreenRoom\P #
#                          rojects\zstack\Samples\GreenClassroom_NetWork\CC25 #
#                          30DB\..\..\..\..\..\Components\mac\low_level\srf04 #
#                          \single_chip\ -I D:\FileInstall\ZStack-CC2530-2.5. #
#                          1a_GreenRoom\Projects\zstack\Samples\GreenClassroo #
#                          m_NetWork\CC2530DB\..\..\..\..\..\Components\mt\   #
#                          -I D:\FileInstall\ZStack-CC2530-2.5.1a_GreenRoom\P #
#                          rojects\zstack\Samples\GreenClassroom_NetWork\CC25 #
#                          30DB\..\..\..\..\..\Components\osal\include\ -I    #
#                          D:\FileInstall\ZStack-CC2530-2.5.1a_GreenRoom\Proj #
#                          ects\zstack\Samples\GreenClassroom_NetWork\CC2530D #
#                          B\..\..\..\..\..\Components\services\saddr\ -I     #
#                          D:\FileInstall\ZStack-CC2530-2.5.1a_GreenRoom\Proj #
#                          ects\zstack\Samples\GreenClassroom_NetWork\CC2530D #
#                          B\..\..\..\..\..\Components\services\sdata\ -I     #
#                          D:\FileInstall\ZStack-CC2530-2.5.1a_GreenRoom\Proj #
#                          ects\zstack\Samples\GreenClassroom_NetWork\CC2530D #
#                          B\..\..\..\..\..\Components\stack\af\ -I           #
#                          D:\FileInstall\ZStack-CC2530-2.5.1a_GreenRoom\Proj #
#                          ects\zstack\Samples\GreenClassroom_NetWork\CC2530D #
#                          B\..\..\..\..\..\Components\stack\nwk\ -I          #
#                          D:\FileInstall\ZStack-CC2530-2.5.1a_GreenRoom\Proj #
#                          ects\zstack\Samples\GreenClassroom_NetWork\CC2530D #
#                          B\..\..\..\..\..\Components\stack\sapi\ -I         #
#                          D:\FileInstall\ZStack-CC2530-2.5.1a_GreenRoom\Proj #
#                          ects\zstack\Samples\GreenClassroom_NetWork\CC2530D #
#                          B\..\..\..\..\..\Components\stack\sec\ -I          #
#                          D:\FileInstall\ZStack-CC2530-2.5.1a_GreenRoom\Proj #
#                          ects\zstack\Samples\GreenClassroom_NetWork\CC2530D #
#                          B\..\..\..\..\..\Components\stack\sys\ -I          #
#                          D:\FileInstall\ZStack-CC2530-2.5.1a_GreenRoom\Proj #
#                          ects\zstack\Samples\GreenClassroom_NetWork\CC2530D #
#                          B\..\..\..\..\..\Components\stack\zdo\ -I          #
#                          D:\FileInstall\ZStack-CC2530-2.5.1a_GreenRoom\Proj #
#                          ects\zstack\Samples\GreenClassroom_NetWork\CC2530D #
#                          B\..\..\..\..\..\Components\zmac\ -I               #
#                          D:\FileInstall\ZStack-CC2530-2.5.1a_GreenRoom\Proj #
#                          ects\zstack\Samples\GreenClassroom_NetWork\CC2530D #
#                          B\..\..\..\..\..\Components\zmac\f8w\ -Ohz         #
#                          --require_prototypes                               #
#    List file          =  D:\FileInstall\ZStack-CC2530-2.5.1a_GreenRoom\Proj #
#                          ects\zstack\Samples\GreenClassroom_NetWork\CC2530D #
#                          B\EndDeviceEB\List\SampleApp.lst                   #
#    Object file        =  D:\FileInstall\ZStack-CC2530-2.5.1a_GreenRoom\Proj #
#                          ects\zstack\Samples\GreenClassroom_NetWork\CC2530D #
#                          B\EndDeviceEB\Obj\SampleApp.r51                    #
#                                                                             #
#                                                                             #
###############################################################################

D:\FileInstall\ZStack-CC2530-2.5.1a_GreenRoom\Projects\zstack\Samples\GreenClassroom_NetWork\Source\SampleApp.c
      1          /**************************************************************************************************
      2            Filename:       SampleApp.c
      3            Revised:        $Date: 2009-03-18 15:56:27 -0700 (Wed, 18 Mar 2009) $
      4            Revision:       $Revision: 19453 $
      5          
      6            Description:    Sample Application (no Profile).
      7          
      8          
      9            Copyright 2007 Texas Instruments Incorporated. All rights reserved.
     10          
     11            IMPORTANT: Your use of this Software is limited to those specific rights
     12            granted under the terms of a software license agreement between the user
     13            who downloaded the software, his/her employer (which must be your employer)
     14            and Texas Instruments Incorporated (the "License").  You may not use this
     15            Software unless you agree to abide by the terms of the License. The License
     16            limits your use, and you acknowledge, that the Software may not be modified,
     17            copied or distributed unless embedded on a Texas Instruments microcontroller
     18            or used solely and exclusively in conjunction with a Texas Instruments radio
     19            frequency transceiver, which is integrated into your product.  Other than for
     20            the foregoing purpose, you may not use, reproduce, copy, prepare derivative
     21            works of, modify, distribute, perform, display or sell this Software and/or
     22            its documentation for any purpose.
     23          
     24            YOU FURTHER ACKNOWLEDGE AND AGREE THAT THE SOFTWARE AND DOCUMENTATION ARE
     25            PROVIDED AS IS?WITHOUT WARRANTY OF ANY KIND, EITHER EXPRESS OR IMPLIED,
     26            INCLUDING WITHOUT LIMITATION, ANY WARRANTY OF MERCHANTABILITY, TITLE,
     27            NON-INFRINGEMENT AND FITNESS FOR A PARTICULAR PURPOSE. IN NO EVENT SHALL
     28            TEXAS INSTRUMENTS OR ITS LICENSORS BE LIABLE OR OBLIGATED UNDER CONTRACT,
     29            NEGLIGENCE, STRICT LIABILITY, CONTRIBUTION, BREACH OF WARRANTY, OR OTHER
     30            LEGAL EQUITABLE THEORY ANY DIRECT OR INDIRECT DAMAGES OR EXPENSES
     31            INCLUDING BUT NOT LIMITED TO ANY INCIDENTAL, SPECIAL, INDIRECT, PUNITIVE
     32            OR CONSEQUENTIAL DAMAGES, LOST PROFITS OR LOST DATA, COST OF PROCUREMENT
     33            OF SUBSTITUTE GOODS, TECHNOLOGY, SERVICES, OR ANY CLAIMS BY THIRD PARTIES
     34            (INCLUDING BUT NOT LIMITED TO ANY DEFENSE THEREOF), OR OTHER SIMILAR COSTS.
     35          
     36            Should you have any questions regarding your right to use this Software,
     37            contact Texas Instruments Incorporated at www.TI.com.
     38          **************************************************************************************************/
     39          
     40          /*********************************************************************
     41            This application isn't intended to do anything useful, it is
     42            intended to be a simple example of an application's structure.
     43          
     44            This application sends it's messages either as broadcast or
     45            broadcast filtered group messages.  The other (more normal)
     46            message addressing is unicast.  Most of the other sample
     47            applications are written to support the unicast message model.
     48          
     49            Key control:
     50              SW1:  Sends a flash command to all devices in Group 1.
     51              SW2:  Adds/Removes (toggles) this device in and out
     52                    of Group 1.  This will enable and disable the
     53                    reception of the flash command.
     54          *********************************************************************/
     55          
     56          /*********************************************************************
     57           * INCLUDES
     58           */
     59          #include "OSAL.h"
     60          #include "ZGlobals.h"
     61          #include "AF.h"
     62          #include "aps_groups.h"
     63          #include "ZDApp.h"
     64          
     65          #include "SampleApp.h"
     66          #include "SampleAppHw.h"
     67          
     68          #include "OnBoard.h"
     69          
     70          /* HAL */
     71          #include "hal_lcd.h"
     72          #include "hal_led.h"
     73          #include "hal_key.h"
     74          #include "MT_UART.h"
     75          #include "MT_APP.h"
     76          #include "MT.h"
     77          
     78          /*********************************************************************
     79           * MACROS
     80           */
     81          
     82          /*********************************************************************
     83           * CONSTANTS
     84           */
     85          
     86          /*********************************************************************
     87           * TYPEDEFS
     88           */
     89          
     90          /*********************************************************************
     91           * GLOBAL VARIABLES
     92           */
     93          
     94          // This list should be filled with Application specific Cluster IDs.

   \                                 In  segment XDATA_ROM_C, align 1
     95          const cId_t SampleApp_ClusterList[SAMPLEAPP_MAX_CLUSTERS] =
   \                     SampleApp_ClusterList:
   \   000000   0100         DW 1
   \   000002   0200         DW 2
     96          {
     97            SAMPLEAPP_PERIODIC_CLUSTERID,
     98            SAMPLEAPP_FLASH_CLUSTERID
     99          };
    100          

   \                                 In  segment XDATA_ROM_C, align 1
    101          const SimpleDescriptionFormat_t SampleApp_SimpleDesc =
   \                     SampleApp_SimpleDesc:
   \   000000   14           DB 20
   \   000001   080F         DW 3848
   \   000003   0100         DW 1
   \   000005   00           DB 0
   \   000006   02           DB 2
   \   000007   ....         DW SampleApp_ClusterList
   \   000009   02           DB 2
   \   00000A   ....         DW SampleApp_ClusterList
    102          {
    103            SAMPLEAPP_ENDPOINT,              //  int Endpoint;
    104            SAMPLEAPP_PROFID,                //  uint16 AppProfId[2];
    105            SAMPLEAPP_DEVICEID,              //  uint16 AppDeviceId[2];
    106            SAMPLEAPP_DEVICE_VERSION,        //  int   AppDevVer:4;
    107            SAMPLEAPP_FLAGS,                 //  int   AppFlags:4;
    108            SAMPLEAPP_MAX_CLUSTERS,          //  uint8  AppNumInClusters;
    109            (cId_t *)SampleApp_ClusterList,  //  uint8 *pAppInClusterList;
    110            SAMPLEAPP_MAX_CLUSTERS,          //  uint8  AppNumInClusters;
    111            (cId_t *)SampleApp_ClusterList   //  uint8 *pAppInClusterList;
    112          };
    113          
    114          // This is the Endpoint/Interface description.  It is defined here, but
    115          // filled-in in SampleApp_Init().  Another way to go would be to fill
    116          // in the structure here and make it a "const" (in code space).  The
    117          // way it's defined in this sample app it is define in RAM.

   \                                 In  segment XDATA_Z, align 1, keep-with-next
    118          endPointDesc_t SampleApp_epDesc;
   \                     SampleApp_epDesc:
   \   000000                DS 6
   \   000006                REQUIRE __INIT_XDATA_Z
    119          
    120          /*********************************************************************
    121           * EXTERNAL VARIABLES
    122           */
    123          
    124          /*********************************************************************
    125           * EXTERNAL FUNCTIONS
    126           */
    127          
    128          /*********************************************************************
    129           * LOCAL VARIABLES
    130           */

   \                                 In  segment XDATA_Z, align 1, keep-with-next
    131          uint8 SampleApp_TaskID;   // Task ID for internal task/event processing
   \                     SampleApp_TaskID:
   \   000000                DS 1
   \   000001                REQUIRE __INIT_XDATA_Z
    132                                    // This variable will be received when
    133                                    // SampleApp_Init() is called.

   \                                 In  segment XDATA_Z, align 1, keep-with-next
    134          devStates_t SampleApp_NwkState;
   \                     SampleApp_NwkState:
   \   000000                DS 1
   \   000001                REQUIRE __INIT_XDATA_Z
    135          

   \                                 In  segment XDATA_Z, align 1, keep-with-next
    136          uint8 SampleApp_TransID;  // This is the unique message ID (counter)
   \                     SampleApp_TransID:
   \   000000                DS 1
   \   000001                REQUIRE __INIT_XDATA_Z
    137          

   \                                 In  segment XDATA_Z, align 1, keep-with-next
    138          afAddrType_t SampleApp_Periodic_DstAddr;
   \                     SampleApp_Periodic_DstAddr:
   \   000000                DS 12
   \   00000C                REQUIRE __INIT_XDATA_Z

   \                                 In  segment XDATA_Z, align 1, keep-with-next
    139          afAddrType_t SampleApp_Flash_DstAddr;
   \                     SampleApp_Flash_DstAddr:
   \   000000                DS 12
   \   00000C                REQUIRE __INIT_XDATA_Z
    140          

   \                                 In  segment XDATA_Z, align 1, keep-with-next
    141          aps_Group_t SampleApp_Group;
   \                     SampleApp_Group:
   \   000000                DS 18
   \   000012                REQUIRE __INIT_XDATA_Z
    142          

   \                                 In  segment XDATA_Z, align 1, keep-with-next
    143          uint8 SampleAppPeriodicCounter = 0;
   \                     SampleAppPeriodicCounter:
   \   000000                DS 1
   \   000001                REQUIRE __INIT_XDATA_Z

   \                                 In  segment XDATA_Z, align 1, keep-with-next
    144          uint8 SampleAppFlashCounter = 0;
   \                     SampleAppFlashCounter:
   \   000000                DS 1
   \   000001                REQUIRE __INIT_XDATA_Z
    145          
    146          /*********************************************************************
    147           * LOCAL FUNCTIONS
    148           */
    149          void SampleApp_HandleKeys( uint8 shift, uint8 keys );
    150          void SampleApp_MessageMSGCB( afIncomingMSGPacket_t *pckt );
    151          void SampleApp_SendPeriodicMessage( void );
    152          void SampleApp_SendFlashMessage( uint16 flashTime );
    153          void COMD_ON( void );
    154          void COMD_OFF( void );
    155          
    156          /*********************************************************************
    157           * NETWORK LAYER CALLBACKS
    158           */
    159          
    160          /*********************************************************************
    161           * PUBLIC FUNCTIONS
    162           */
    163          
    164          /*********************************************************************
    165           * @fn      SampleApp_Init
    166           *
    167           * @brief   Initialization function for the Generic App Task.
    168           *          This is called during initialization and should contain
    169           *          any application specific initialization (ie. hardware
    170           *          initialization/setup, table initialization, power up
    171           *          notificaiton ... ).
    172           *
    173           * @param   task_id - the ID assigned by OSAL.  This ID should be
    174           *                    used to send messages and set timers.
    175           *
    176           * @return  none
    177           */

   \                                 In  segment BANKED_CODE, align 1, keep-with-next
    178          void SampleApp_Init( uint8 task_id )
   \                     SampleApp_Init:
    179          { 
   \   000000   74F5         MOV     A,#-0xb
   \   000002   12....       LCALL   ?BANKED_ENTER_XDATA
   \   000005                ; Saved register size: 11
   \   000005                ; Auto size: 0
   \   000005   E9           MOV     A,R1
    180            SampleApp_TaskID = task_id;   //osal分配的任务ID随着用户添加任务的增多而改变
   \   000006   90....       MOV     DPTR,#SampleApp_TaskID
   \   000009   F0           MOVX    @DPTR,A
    181            SampleApp_NwkState = DEV_INIT;//设备状态设定为ZDO层中定义的初始化状态
   \   00000A   90....       MOV     DPTR,#SampleApp_NwkState
   \   00000D   7401         MOV     A,#0x1
   \   00000F   F0           MOVX    @DPTR,A
    182            SampleApp_TransID = 0;        //消息发送ID（多消息时有顺序之分）
   \   000010   90....       MOV     DPTR,#SampleApp_TransID
   \   000013   E4           CLR     A
   \   000014   F0           MOVX    @DPTR,A
    183           
    184            // Device hardware initialization can be added here or in main() (Zmain.c).
    185            // If the hardware is application specific - add it here.
    186            // If the hardware is other parts of the device add it in main().
    187          
    188           #if defined ( BUILD_ALL_DEVICES )
    189            // The "Demo" target is setup to have BUILD_ALL_DEVICES and HOLD_AUTO_START
    190            // We are looking at a jumper (defined in SampleAppHw.c) to be jumpered
    191            // together - if they are - we will start up a coordinator. Otherwise,
    192            // the device will start as a router.
    193            if ( readCoordinatorJumper() )
    194              zgDeviceLogicalType = ZG_DEVICETYPE_COORDINATOR;
    195            else
    196              zgDeviceLogicalType = ZG_DEVICETYPE_ROUTER;
    197          #endif // BUILD_ALL_DEVICES
    198          
    199          //该段的意思是，如果设置了HOLD_AUTO_START宏定义，将会在启动芯片的时候会暂停启动
    200          //流程，只有外部触发以后才会启动芯片。其实就是需要一个按钮触发它的启动流程。  
    201          #if defined ( HOLD_AUTO_START )
    202            // HOLD_AUTO_START is a compile option that will surpress ZDApp
    203            //  from starting the device and wait for the application to
    204            //  start the device.
    205            ZDOInitDevice(0);
    206          #endif
    207          
    208            // Setup for the periodic message's destination address 设置发送数据的方式和目的地址寻址模式
    209            // Broadcast to everyone 发送模式:广播发送
    210            SampleApp_Periodic_DstAddr.addrMode = (afAddrMode_t)AddrBroadcast;//广播
   \   000015   90....       MOV     DPTR,#SampleApp_Periodic_DstAddr + 8
   \   000018   740F         MOV     A,#0xf
   \   00001A   F0           MOVX    @DPTR,A
    211            SampleApp_Periodic_DstAddr.endPoint = SAMPLEAPP_ENDPOINT; //指定端点号
   \   00001B   A3           INC     DPTR
   \   00001C   7414         MOV     A,#0x14
   \   00001E   F0           MOVX    @DPTR,A
    212            SampleApp_Periodic_DstAddr.addr.shortAddr = 0xFFFF;//指定目的网络地址为广播地址
   \   00001F   90....       MOV     DPTR,#SampleApp_Periodic_DstAddr
   \   000022   74FF         MOV     A,#-0x1
   \   000024   F0           MOVX    @DPTR,A
   \   000025   A3           INC     DPTR
   \   000026   F0           MOVX    @DPTR,A
    213          
    214            // Setup for the flash command's destination address - Group 1 组播发送
    215            SampleApp_Flash_DstAddr.addrMode = (afAddrMode_t)afAddrGroup; //组寻址
   \   000027   90....       MOV     DPTR,#SampleApp_Flash_DstAddr + 8
   \   00002A   7401         MOV     A,#0x1
   \   00002C   F0           MOVX    @DPTR,A
    216            SampleApp_Flash_DstAddr.endPoint = SAMPLEAPP_ENDPOINT; //指定端点号
   \   00002D   A3           INC     DPTR
   \   00002E   7414         MOV     A,#0x14
   \   000030   F0           MOVX    @DPTR,A
    217            SampleApp_Flash_DstAddr.addr.shortAddr = SAMPLEAPP_FLASH_GROUP;//组号0x0001
   \   000031   90....       MOV     DPTR,#SampleApp_Flash_DstAddr
   \   000034   7401         MOV     A,#0x1
   \   000036   F0           MOVX    @DPTR,A
   \   000037   A3           INC     DPTR
   \   000038   E4           CLR     A
   \   000039   F0           MOVX    @DPTR,A
    218          
    219            // Fill out the endpoint description. 定义本设备用来通信的APS层端点描述符
    220            SampleApp_epDesc.endPoint = SAMPLEAPP_ENDPOINT; //指定端点号
   \   00003A   90....       MOV     DPTR,#SampleApp_epDesc
   \   00003D   7414         MOV     A,#0x14
   \   00003F   F0           MOVX    @DPTR,A
    221            SampleApp_epDesc.task_id = &SampleApp_TaskID;   //SampleApp 描述符的任务ID
   \   000040   A3           INC     DPTR
   \   000041   74..         MOV     A,#SampleApp_TaskID & 0xff
   \   000043   F0           MOVX    @DPTR,A
   \   000044   A3           INC     DPTR
   \   000045   74..         MOV     A,#(SampleApp_TaskID >> 8) & 0xff
   \   000047   F0           MOVX    @DPTR,A
    222            SampleApp_epDesc.simpleDesc
    223                      = (SimpleDescriptionFormat_t *)&SampleApp_SimpleDesc;//SampleApp简单描述符
   \   000048   A3           INC     DPTR
   \   000049   74..         MOV     A,#SampleApp_SimpleDesc & 0xff
   \   00004B   F0           MOVX    @DPTR,A
   \   00004C   A3           INC     DPTR
   \   00004D   74..         MOV     A,#(SampleApp_SimpleDesc >> 8) & 0xff
   \   00004F   F0           MOVX    @DPTR,A
    224            SampleApp_epDesc.latencyReq = noLatencyReqs;    //延时策略
   \   000050   A3           INC     DPTR
   \   000051   E4           CLR     A
   \   000052   F0           MOVX    @DPTR,A
    225          
    226            // Register the endpoint description with the AF
    227            afRegister( &SampleApp_epDesc );    //向AF层登记描述符
   \   000053                ; Setup parameters for call to function afRegister
   \   000053   7A..         MOV     R2,#SampleApp_epDesc & 0xff
   \   000055   7B..         MOV     R3,#(SampleApp_epDesc >> 8) & 0xff
   \   000057   12....       LCALL   ??afRegister?relay
    228          
    229            // Register for all key events - This app will handle all key events
    230            RegisterForKeys( SampleApp_TaskID ); // 登记所有的按键事件
   \   00005A                ; Setup parameters for call to function RegisterForKeys
   \   00005A   90....       MOV     DPTR,#SampleApp_TaskID
   \   00005D   E0           MOVX    A,@DPTR
   \   00005E   F9           MOV     R1,A
   \   00005F   12....       LCALL   ??RegisterForKeys?relay
    231          
    232            // By default, all devices start out in Group 1
    233            SampleApp_Group.ID = 0x0001;//组号
   \   000062   90....       MOV     DPTR,#SampleApp_Group
   \   000065   7401         MOV     A,#0x1
   \   000067   F0           MOVX    @DPTR,A
   \   000068   A3           INC     DPTR
   \   000069   E4           CLR     A
   \   00006A   F0           MOVX    @DPTR,A
    234            osal_memcpy( SampleApp_Group.name, "Group 1", 7  );//设定组名
   \   00006B                ; Setup parameters for call to function osal_memcpy
   \   00006B   75....       MOV     ?V0 + 0,#`?<Constant "Group 1">` & 0xff
   \   00006E   75....       MOV     ?V0 + 1,#(`?<Constant "Group 1">` >> 8) & 0xff
   \   000071   F5..         MOV     ?V0 + 2,A
   \   000073   78..         MOV     R0,#?V0 + 0
   \   000075   12....       LCALL   ?PUSH_XSTACK_I_THREE
   \   000078   7C07         MOV     R4,#0x7
   \   00007A   7D00         MOV     R5,#0x0
   \   00007C   7A..         MOV     R2,#(SampleApp_Group + 2) & 0xff
   \   00007E   7B..         MOV     R3,#((SampleApp_Group + 2) >> 8) & 0xff
   \   000080   12....       LCALL   ??osal_memcpy?relay
   \   000083   7403         MOV     A,#0x3
   \   000085   12....       LCALL   ?DEALLOC_XSTACK8
    235            aps_AddGroup( SAMPLEAPP_ENDPOINT, &SampleApp_Group );//把该组登记添加到APS中
   \   000088                ; Setup parameters for call to function aps_AddGroup
   \   000088   7A..         MOV     R2,#SampleApp_Group & 0xff
   \   00008A   7B..         MOV     R3,#(SampleApp_Group >> 8) & 0xff
   \   00008C   7914         MOV     R1,#0x14
   \   00008E   12....       LCALL   ??aps_AddGroup?relay
    236          
    237          #if defined ( LCD_SUPPORTED )
    238            HalLcdWriteString( "SampleApp", HAL_LCD_LINE_1 ); //如果支持LCD，显示提示信息
   \   000091                ; Setup parameters for call to function HalLcdWriteString
   \   000091   7901         MOV     R1,#0x1
   \   000093   7A..         MOV     R2,#`?<Constant "SampleApp">` & 0xff
   \   000095   7B..         MOV     R3,#(`?<Constant "SampleApp">` >> 8) & 0xff
   \   000097   12....       LCALL   ??HalLcdWriteString?relay
    239          #endif
    240          }
   \   00009A                REQUIRE ?Subroutine0
   \   00009A                ; // Fall through to label ?Subroutine0

   \                                 In  segment BANKED_CODE, align 1, keep-with-next
   \                     ?Subroutine0:
   \   000000   7F03         MOV     R7,#0x3
   \   000002   02....       LJMP    ?BANKED_LEAVE_XDATA
    241          
    242          /*********************************************************************
    243           * @fn      SampleApp_ProcessEvent
    244           *
    245           * @brief   Generic Application Task event processor.  This function
    246           *          is called to process all events for the task.  Events
    247           *          include timers, messages and any other user defined events.
    248           *
    249           * @param   task_id  - The OSAL assigned task ID.
    250           * @param   events - events to process.  This is a bit map and can
    251           *                   contain more than one event.
    252           *
    253           * @return  none
    254           */
    255          //用户应用任务的事件处理函数

   \                                 In  segment BANKED_CODE, align 1, keep-with-next
    256          uint16 SampleApp_ProcessEvent( uint8 task_id, uint16 events )
   \                     SampleApp_ProcessEvent:
    257          {
   \   000000   74F4         MOV     A,#-0xc
   \   000002   12....       LCALL   ?BANKED_ENTER_XDATA
   \   000005                ; Saved register size: 12
   \   000005                ; Auto size: 0
   \   000005   EA           MOV     A,R2
   \   000006   FE           MOV     R6,A
   \   000007   EB           MOV     A,R3
   \   000008   FF           MOV     R7,A
    258            afIncomingMSGPacket_t *MSGpkt;
    259            (void)task_id;  // Intentionally unreferenced parameter
    260          
    261            if ( events & SYS_EVENT_MSG ) //接收系统消息再进行判断
   \   000009   5480         ANL     A,#0x80
   \   00000B   605C         JZ      ??SampleApp_ProcessEvent_0
    262            {
    263              //接收属于本应用任务SampleApp的消息，以SampleApp_TaskID标记
    264              MSGpkt = (afIncomingMSGPacket_t *)osal_msg_receive( SampleApp_TaskID );
   \   00000D                ; Setup parameters for call to function osal_msg_receive
   \   00000D   8026         SJMP    ??SampleApp_ProcessEvent_1
    265              while ( MSGpkt )
    266              {
    267                switch ( MSGpkt->hdr.event )
    268                {
    269                  // Received when a key is pressed
    270                  case KEY_CHANGE://按键事件
    271                    // keyMsg.process( ((keyChange_t *)MSGpkt)->keys , ((keyChange_t *)MSGpkt)->state );
    272                    // SampleApp_HandleKeys( ((keyChange_t *)MSGpkt)->state, ((keyChange_t *)MSGpkt)->keys );
    273                    break;
    274          
    275                  // Received when a messages is received (OTA) for this endpoint
    276                  case AF_INCOMING_MSG_CMD://接收数据事件,调用函数AF_DataRequest()接收数据
    277                    SampleApp_MessageMSGCB( MSGpkt );//调用回调函数对收到的数据进行处理
    278                    break;
    279          
    280                  // Received whenever the device changes state in the network
    281                  case ZDO_STATE_CHANGE:
    282                    //只要网络状态发生改变，就通过ZDO_STATE_CHANGE事件通知所有的任务。
    283                    //同时完成对协调器，路由器，终端的设置
    284                    SampleApp_NwkState = (devStates_t)(MSGpkt->hdr.status);
   \                     ??SampleApp_ProcessEvent_2:
   \   00000F   A3           INC     DPTR
   \   000010   E0           MOVX    A,@DPTR
   \   000011   90....       MOV     DPTR,#SampleApp_NwkState
   \   000014   F0           MOVX    @DPTR,A
    285                    //if ( (SampleApp_NwkState == DEV_ZB_COORD)//实验中协调器只接收数据所以取消发送事件
    286                    if ( (SampleApp_NwkState == DEV_ROUTER) || (SampleApp_NwkState == DEV_END_DEVICE) )
   \   000015   6407         XRL     A,#0x7
   \   000017   6005         JZ      ??SampleApp_ProcessEvent_3
   \   000019   E0           MOVX    A,@DPTR
   \   00001A   6406         XRL     A,#0x6
   \   00001C   7010         JNZ     ??SampleApp_ProcessEvent_4
    287                    {
    288                      // Start sending the periodic message in a regular interval.
    289                      //这个定时器只是为发送周期信息开启的，设备启动初始化后从这里开始
    290                      //触发第一个周期信息的发送，然后周而复始下去
    291                      osal_start_timerEx( SampleApp_TaskID,
    292                                        SAMPLEAPP_SEND_PERIODIC_MSG_EVT,
    293                                        SAMPLEAPP_SEND_PERIODIC_MSG_TIMEOUT );
   \                     ??SampleApp_ProcessEvent_3:
   \   00001E                ; Setup parameters for call to function osal_start_timerEx
   \   00001E   7C88         MOV     R4,#-0x78
   \   000020   7D13         MOV     R5,#0x13
   \   000022   7A01         MOV     R2,#0x1
   \   000024   7B00         MOV     R3,#0x0
   \   000026   90....       MOV     DPTR,#SampleApp_TaskID
   \   000029   E0           MOVX    A,@DPTR
   \   00002A   F9           MOV     R1,A
   \   00002B   12....       LCALL   ??osal_start_timerEx?relay
    294                    }
    295                    else
    296                    {
    297                      // Device is no longer in the network
    298                    }
    299                    break;
    300          
    301                  default:
    302                    break;
    303                }
    304          
    305                // Release the memory 事件处理完了，释放消息占用的内存
    306                osal_msg_deallocate( (uint8 *)MSGpkt );
   \                     ??SampleApp_ProcessEvent_4:
   \   00002E                ; Setup parameters for call to function osal_msg_deallocate
   \   00002E   AA..         MOV     R2,?V0 + 0
   \   000030   AB..         MOV     R3,?V0 + 1
   \   000032   12....       LCALL   ??osal_msg_deallocate?relay
    307          
    308                // Next - if one is available 指针指向下一个放在缓冲区的待处理的事件，
    309                //返回while ( MSGpkt )重新处理事件，直到缓冲区没有等待处理事件为止
    310                MSGpkt = (afIncomingMSGPacket_t *)osal_msg_receive( SampleApp_TaskID );
   \   000035                ; Setup parameters for call to function osal_msg_receive
   \                     ??SampleApp_ProcessEvent_1:
   \   000035   90....       MOV     DPTR,#SampleApp_TaskID
   \   000038   E0           MOVX    A,@DPTR
   \   000039   F9           MOV     R1,A
   \   00003A   12....       LCALL   ??osal_msg_receive?relay
   \   00003D   8A..         MOV     ?V0 + 0,R2
   \   00003F   8B..         MOV     ?V0 + 1,R3
   \   000041   E5..         MOV     A,?V0 + 0
   \   000043   45..         ORL     A,?V0 + 1
   \   000045   601A         JZ      ??SampleApp_ProcessEvent_5
   \   000047   85..82       MOV     DPL,?V0 + 0
   \   00004A   85..83       MOV     DPH,?V0 + 1
   \   00004D   E0           MOVX    A,@DPTR
   \   00004E   24E6         ADD     A,#-0x1a
   \   000050   6006         JZ      ??SampleApp_ProcessEvent_6
   \   000052   2449         ADD     A,#0x49
   \   000054   60B9         JZ      ??SampleApp_ProcessEvent_2
   \   000056   80D6         SJMP    ??SampleApp_ProcessEvent_4
   \                     ??SampleApp_ProcessEvent_6:
   \   000058                ; Setup parameters for call to function SampleApp_MessageMSGCB
   \   000058   AA..         MOV     R2,?V0 + 0
   \   00005A   AB..         MOV     R3,?V0 + 1
   \   00005C   12....       LCALL   ??SampleApp_MessageMSGCB?relay
   \   00005F   80CD         SJMP    ??SampleApp_ProcessEvent_4
    311              }
    312          
    313              // return unprocessed events 返回未处理的事件
    314              return (events ^ SYS_EVENT_MSG);
   \                     ??SampleApp_ProcessEvent_5:
   \   000061   EE           MOV     A,R6
   \   000062   FA           MOV     R2,A
   \   000063   EF           MOV     A,R7
   \   000064   6480         XRL     A,#0x80
   \                     ??SampleApp_ProcessEvent_7:
   \   000066   FB           MOV     R3,A
   \   000067   802A         SJMP    ??SampleApp_ProcessEvent_8
    315            }
    316          
    317            // Send a message out - This event is generated by a timer
    318            //  (setup in SampleApp_Init()).
    319            if ( events & SAMPLEAPP_SEND_PERIODIC_MSG_EVT )
   \                     ??SampleApp_ProcessEvent_0:
   \   000069   EE           MOV     A,R6
   \   00006A   A2E0         MOV     C,0xE0 /* A   */.0
   \   00006C   5021         JNC     ??SampleApp_ProcessEvent_9
    320            {
    321              // Send the periodic message 处理周期性事件，
    322              //利用SampleApp_SendPeriodicMessage()处理完当前的周期性事件，然后启动定时器
    323              //开启下一个周期性事情，这样一种循环下去，也即是上面说的周期性事件了，
    324              //可以做为传感器定时采集、上传任务
    325              SampleApp_SendPeriodicMessage();
   \   00006E                ; Setup parameters for call to function SampleApp_SendPeriodicMessage
   \   00006E   12....       LCALL   ??SampleApp_SendPeriodicMessage?relay
    326          
    327              // Setup to send message again in normal period (+ a little jitter)
    328              osal_start_timerEx( SampleApp_TaskID, SAMPLEAPP_SEND_PERIODIC_MSG_EVT,
    329                  (SAMPLEAPP_SEND_PERIODIC_MSG_TIMEOUT + (osal_rand() & 0x00FF)) );
   \   000071                ; Setup parameters for call to function osal_rand
   \   000071   12....       LCALL   ??osal_rand?relay
   \   000074                ; Setup parameters for call to function osal_start_timerEx
   \   000074   EA           MOV     A,R2
   \   000075   2488         ADD     A,#-0x78
   \   000077   FC           MOV     R4,A
   \   000078   E4           CLR     A
   \   000079   3413         ADDC    A,#0x13
   \   00007B   FD           MOV     R5,A
   \   00007C   7A01         MOV     R2,#0x1
   \   00007E   7B00         MOV     R3,#0x0
   \   000080   90....       MOV     DPTR,#SampleApp_TaskID
   \   000083   E0           MOVX    A,@DPTR
   \   000084   F9           MOV     R1,A
   \   000085   12....       LCALL   ??osal_start_timerEx?relay
    330          
    331              // return unprocessed events 返回未处理的事件
    332              return (events ^ SAMPLEAPP_SEND_PERIODIC_MSG_EVT);
   \   000088   EE           MOV     A,R6
   \   000089   6401         XRL     A,#0x1
   \   00008B   FA           MOV     R2,A
   \   00008C   EF           MOV     A,R7
   \   00008D   80D7         SJMP    ??SampleApp_ProcessEvent_7
    333            }
    334          
    335            // Discard unknown events
    336            return 0;
   \                     ??SampleApp_ProcessEvent_9:
   \   00008F   7A00         MOV     R2,#0x0
   \   000091   7B00         MOV     R3,#0x0
   \                     ??SampleApp_ProcessEvent_8:
   \   000093   7F04         MOV     R7,#0x4
   \   000095   02....       LJMP    ?BANKED_LEAVE_XDATA
    337          }
    338          
    339          /*********************************************************************
    340           * Event Generation Functions
    341           */
    342          /*********************************************************************
    343           * @fn      SampleApp_HandleKeys
    344           *
    345           * @brief   Handles all key events for this device.
    346           *
    347           * @param   shift - true if in shift/alt.
    348           * @param   keys - bit field for key events. Valid entries:
    349           *                 HAL_KEY_SW_2
    350           *                 HAL_KEY_SW_1
    351           *
    352           * @return  none
    353           */

   \                                 In  segment BANKED_CODE, align 1, keep-with-next
    354          void SampleApp_HandleKeys( uint8 shift, uint8 keys ) //此实验没有用到，后面再分析
   \                     SampleApp_HandleKeys:
    355          {
   \   000000   74F6         MOV     A,#-0xa
   \   000002   12....       LCALL   ?BANKED_ENTER_XDATA
   \   000005                ; Saved register size: 10
   \   000005                ; Auto size: 0
   \   000005   EA           MOV     A,R2
   \   000006   FE           MOV     R6,A
    356            (void)shift;  // Intentionally unreferenced parameter
    357            
    358            if ( keys & HAL_KEY_SW_1 )
   \   000007   A2E0         MOV     C,0xE0 /* A   */.0
   \   000009   5007         JNC     ??SampleApp_HandleKeys_0
    359            {
    360              /* This key sends the Flash Command is sent to Group 1.
    361               * This device will not receive the Flash Command from this
    362               * device (even if it belongs to group 1).
    363               */
    364              SampleApp_SendFlashMessage( SAMPLEAPP_FLASH_DURATION );
   \   00000B                ; Setup parameters for call to function SampleApp_SendFlashMessage
   \   00000B   7AE8         MOV     R2,#-0x18
   \   00000D   7B03         MOV     R3,#0x3
   \   00000F   12....       LCALL   ??SampleApp_SendFlashMessage?relay
    365            }
    366          
    367            if ( keys & HAL_KEY_SW_2 )
   \                     ??SampleApp_HandleKeys_0:
   \   000012   EE           MOV     A,R6
   \   000013   A2E1         MOV     C,0xE0 /* A   */.1
   \   000015   5024         JNC     ??SampleApp_HandleKeys_1
    368            {
    369              /* The Flashr Command is sent to Group 1.
    370               * This key toggles this device in and out of group 1.
    371               * If this device doesn't belong to group 1, this application
    372               * will not receive the Flash command sent to group 1.
    373               */
    374              aps_Group_t *grp;
    375              grp = aps_FindGroup( SAMPLEAPP_ENDPOINT, SAMPLEAPP_FLASH_GROUP );
    376              if ( grp )
   \   000017                ; Setup parameters for call to function aps_FindGroup
   \   000017   7A01         MOV     R2,#0x1
   \   000019   7B00         MOV     R3,#0x0
   \   00001B   7914         MOV     R1,#0x14
   \   00001D   12....       LCALL   ??aps_FindGroup?relay
   \   000020   8B..         MOV     ?V0 + 1,R3
   \   000022   EA           MOV     A,R2
   \   000023   45..         ORL     A,?V0 + 1
   \   000025   600B         JZ      ??SampleApp_HandleKeys_2
    377              {
    378                // Remove from the group
    379                aps_RemoveGroup( SAMPLEAPP_ENDPOINT, SAMPLEAPP_FLASH_GROUP );
   \   000027                ; Setup parameters for call to function aps_RemoveGroup
   \   000027   7A01         MOV     R2,#0x1
   \   000029   7B00         MOV     R3,#0x0
   \   00002B   7914         MOV     R1,#0x14
   \   00002D   12....       LCALL   ??aps_RemoveGroup?relay
   \   000030   8009         SJMP    ??SampleApp_HandleKeys_1
    380              }
    381              else
    382              {
    383                // Add to the flash group
    384                aps_AddGroup( SAMPLEAPP_ENDPOINT, &SampleApp_Group );
   \                     ??SampleApp_HandleKeys_2:
   \   000032                ; Setup parameters for call to function aps_AddGroup
   \   000032   7A..         MOV     R2,#SampleApp_Group & 0xff
   \   000034   7B..         MOV     R3,#(SampleApp_Group >> 8) & 0xff
   \   000036   7914         MOV     R1,#0x14
   \   000038   12....       LCALL   ??aps_AddGroup?relay
    385              }
    386            }
    387          }
   \                     ??SampleApp_HandleKeys_1:
   \   00003B   02....       LJMP    ??Subroutine5_0 & 0xFFFF

   \                                 In  segment BANKED_CODE, align 1, keep-with-next
   \                     ??Subroutine5_0:
   \   000000   7F02         MOV     R7,#0x2
   \   000002   02....       LJMP    ?BANKED_LEAVE_XDATA
    388          
    389          /*********************************************************************
    390           * LOCAL FUNCTIONS
    391           */
    392          
    393          /*********************************************************************
    394           * @fn      SampleApp_MessageMSGCB
    395           *
    396           * @brief   Data message processor callback.  This function processes
    397           *          any incoming data - probably from other devices.  So, based
    398           *          on cluster ID, perform the intended action.
    399           *
    400           * @param   none
    401           *
    402           * @return  none
    403           */
    404          //接收数据，参数为接收到的数据

   \                                 In  segment BANKED_CODE, align 1, keep-with-next
    405          void SampleApp_MessageMSGCB( afIncomingMSGPacket_t *pkt )
   \                     SampleApp_MessageMSGCB:
    406          {
   \   000000   74F5         MOV     A,#-0xb
   \   000002   12....       LCALL   ?BANKED_ENTER_XDATA
   \   000005                ; Saved register size: 11
   \   000005                ; Auto size: 6
   \   000005   74FA         MOV     A,#-0x6
   \   000007   12....       LCALL   ?ALLOC_XSTACK8
   \   00000A   EA           MOV     A,R2
   \   00000B   FE           MOV     R6,A
   \   00000C   EB           MOV     A,R3
   \   00000D   FF           MOV     R7,A
    407            uint16 flashTime;
    408            byte buf[6]; 
    409          
    410            switch ( pkt->clusterId ) //判断簇ID
   \   00000E   8E82         MOV     DPL,R6
   \   000010   8F83         MOV     DPH,R7
   \   000012   A3           INC     DPTR
   \   000013   A3           INC     DPTR
   \   000014   A3           INC     DPTR
   \   000015   A3           INC     DPTR
   \   000016   E0           MOVX    A,@DPTR
   \   000017   F5..         MOV     ?V0 + 0,A
   \   000019   A3           INC     DPTR
   \   00001A   E0           MOVX    A,@DPTR
   \   00001B   F5..         MOV     ?V0 + 1,A
   \   00001D   78..         MOV     R0,#?V0 + 0
   \   00001F   12....       LCALL   ?US_SWITCH_DENSE
   \                     `?<Jumptable for SampleApp_MessageMSGCB>_0`:
   \   000022   0100         DW        1
   \   000024   01           DB        1
   \   000025   ....         DW        ??SampleApp_MessageMSGCB_0
   \   000027   ....         DW        ??SampleApp_MessageMSGCB_1
   \   000029   ....         DW        ??SampleApp_MessageMSGCB_2
    411            {
    412              case SAMPLEAPP_PERIODIC_CLUSTERID: //收到广播数据
    413                osal_memset(buf, 0 , 6);
   \                     ??SampleApp_MessageMSGCB_1:
   \   00002B                ; Setup parameters for call to function osal_memset
   \   00002B   7C06         MOV     R4,#0x6
   \   00002D   7D00         MOV     R5,#0x0
   \   00002F   7900         MOV     R1,#0x0
   \   000031   85..82       MOV     DPL,?XSP + 0
   \   000034   85..83       MOV     DPH,?XSP + 1
   \   000037   AA82         MOV     R2,DPL
   \   000039   AB83         MOV     R3,DPH
   \   00003B   12....       LCALL   ??osal_memset?relay
    414                osal_memcpy(buf, pkt->cmd.Data, 6); //复制数据到缓冲区中
   \   00003E                ; Setup parameters for call to function osal_memcpy
   \   00003E   12....       LCALL   ?Subroutine3 & 0xFFFF
   \                     ??CrossCallReturnLabel_0:
   \   000041   F5..         MOV     ?V0 + 0,A
   \   000043   A3           INC     DPTR
   \   000044   E0           MOVX    A,@DPTR
   \   000045   F5..         MOV     ?V0 + 1,A
   \   000047   75..00       MOV     ?V0 + 2,#0x0
   \   00004A   78..         MOV     R0,#?V0 + 0
   \   00004C   12....       LCALL   ?PUSH_XSTACK_I_THREE
   \   00004F   7C06         MOV     R4,#0x6
   \   000051   7D00         MOV     R5,#0x0
   \   000053   7403         MOV     A,#0x3
   \   000055   12....       LCALL   ?XSTACK_DISP0_8
   \   000058   AA82         MOV     R2,DPL
   \   00005A   AB83         MOV     R3,DPH
   \   00005C   12....       LCALL   ??osal_memcpy?relay
   \   00005F   7403         MOV     A,#0x3
   \   000061   12....       LCALL   ?DEALLOC_XSTACK8
    415                
    416                if(buf[0]=='D' && buf[1]=='1')      //判断收到的数据是否为"D1"         
   \   000064   85..82       MOV     DPL,?XSP + 0
   \   000067   85..83       MOV     DPH,?XSP + 1
   \   00006A   E0           MOVX    A,@DPTR
   \   00006B   6444         XRL     A,#0x44
   \   00006D   701A         JNZ     ??SampleApp_MessageMSGCB_3
   \   00006F   7401         MOV     A,#0x1
   \   000071   12....       LCALL   ?XSTACK_DISP0_8
   \   000074   E0           MOVX    A,@DPTR
   \   000075   6431         XRL     A,#0x31
   \   000077   6003         JZ      $+5
   \   000079   02....       LJMP    ??SampleApp_MessageMSGCB_0 & 0xFFFF
    417                {
    418                    HalLedBlink(HAL_LED_3, 0, 50, 500);//如果是则Led1间隔500ms闪烁
   \   00007C                ; Setup parameters for call to function HalLedBlink
   \   00007C   7CF4         MOV     R4,#-0xc
   \   00007E   7D01         MOV     R5,#0x1
   \   000080   7B32         MOV     R3,#0x32
   \   000082   7A00         MOV     R2,#0x0
   \   000084   7904         MOV     R1,#0x4
   \   000086   12....       LCALL   ??HalLedBlink?relay
    419          #if defined(ZDO_COORDINATOR) //协调器收到"D1"后,返回"D1"给终端，让终端Led1也闪烁
    420                    SampleApp_SendPeriodicMessage();
    421          #endif
    422                }
    423                // 根据协议解析数据包
    424                // 1. 灯的操作
    425                // 2. 分析指令
    426                // 3. 执行指令
    427                
    428                if ( buf[0] == 'G' && buf[1] == 'C' && buf[2] == 'R') {
   \                     ??SampleApp_MessageMSGCB_3:
   \   000089   85..82       MOV     DPL,?XSP + 0
   \   00008C   85..83       MOV     DPH,?XSP + 1
   \   00008F   E0           MOVX    A,@DPTR
   \   000090   6447         XRL     A,#0x47
   \   000092   7072         JNZ     ??SampleApp_MessageMSGCB_0
   \   000094   7401         MOV     A,#0x1
   \   000096   12....       LCALL   ?XSTACK_DISP0_8
   \   000099   E0           MOVX    A,@DPTR
   \   00009A   6443         XRL     A,#0x43
   \   00009C   7068         JNZ     ??SampleApp_MessageMSGCB_0
   \   00009E   7402         MOV     A,#0x2
   \   0000A0   12....       LCALL   ?XSTACK_DISP0_8
   \   0000A3   E0           MOVX    A,@DPTR
   \   0000A4   6452         XRL     A,#0x52
   \   0000A6   705E         JNZ     ??SampleApp_MessageMSGCB_0
    429                  if ( buf[3] == '2' && buf[4] == '0') {
   \   0000A8   7403         MOV     A,#0x3
   \   0000AA   12....       LCALL   ?XSTACK_DISP0_8
   \   0000AD   E0           MOVX    A,@DPTR
   \   0000AE   6432         XRL     A,#0x32
   \   0000B0   7054         JNZ     ??SampleApp_MessageMSGCB_0
   \   0000B2   7404         MOV     A,#0x4
   \   0000B4   12....       LCALL   ?XSTACK_DISP0_8
   \   0000B7   E0           MOVX    A,@DPTR
   \   0000B8   6430         XRL     A,#0x30
   \   0000BA   704A         JNZ     ??SampleApp_MessageMSGCB_0
    430                    if ( buf[5] == '1') { // 开灯
   \   0000BC   7405         MOV     A,#0x5
   \   0000BE   12....       LCALL   ?XSTACK_DISP0_8
   \   0000C1   E0           MOVX    A,@DPTR
   \   0000C2   6431         XRL     A,#0x31
   \   0000C4   7009         JNZ     ??SampleApp_MessageMSGCB_4
    431                       HalLedSet(HAL_LED_1, HAL_LED_MODE_ON);
   \   0000C6                ; Setup parameters for call to function HalLedSet
   \   0000C6   7A01         MOV     R2,#0x1
   \                     ??SampleApp_MessageMSGCB_5:
   \   0000C8   7901         MOV     R1,#0x1
   \   0000CA   12....       LCALL   ??HalLedSet?relay
   \   0000CD   8037         SJMP    ??SampleApp_MessageMSGCB_0
    432                    } else {  // 关灯
    433                       HalLedSet(HAL_LED_1, HAL_LED_MODE_OFF);
   \                     ??SampleApp_MessageMSGCB_4:
   \   0000CF                ; Setup parameters for call to function HalLedSet
   \   0000CF   7A00         MOV     R2,#0x0
   \   0000D1   80F5         SJMP    ??SampleApp_MessageMSGCB_5
    434                    }
    435                  } else if ( buf[3] == '1' && buf[4] == '0') {
    436                    // 返回数据回去
    437                  }
    438                }
   \                     ??SampleApp_MessageMSGCB_2:
   \   0000D3   12....       LCALL   ?Subroutine3 & 0xFFFF
   \                     ??CrossCallReturnLabel_1:
   \   0000D6   F8           MOV     R0,A
   \   0000D7   A3           INC     DPTR
   \   0000D8   E0           MOVX    A,@DPTR
   \   0000D9   F9           MOV     R1,A
   \   0000DA                ; Setup parameters for call to function HalLedBlink
   \   0000DA   8882         MOV     DPL,R0
   \   0000DC   8983         MOV     DPH,R1
   \   0000DE   A3           INC     DPTR
   \   0000DF   E0           MOVX    A,@DPTR
   \   0000E0   FA           MOV     R2,A
   \   0000E1   8882         MOV     DPL,R0
   \   0000E3   8983         MOV     DPH,R1
   \   0000E5   A3           INC     DPTR
   \   0000E6   A3           INC     DPTR
   \   0000E7   E0           MOVX    A,@DPTR
   \   0000E8   F9           MOV     R1,A
   \   0000E9   EA           MOV     A,R2
   \   0000EA   2400         ADD     A,#0x0
   \   0000EC   F5..         MOV     ?V0 + 0,A
   \   0000EE   E4           CLR     A
   \   0000EF   39           ADDC    A,R1
   \   0000F0   F5..         MOV     ?V0 + 1,A
   \   0000F2   7402         MOV     A,#0x2
   \   0000F4   78..         MOV     R0,#?V0 + 0
   \   0000F6   12....       LCALL   ?US_SHR
   \   0000F9   AC..         MOV     R4,?V0 + 0
   \   0000FB   AD..         MOV     R5,?V0 + 1
   \   0000FD   7B32         MOV     R3,#0x32
   \   0000FF   7A04         MOV     R2,#0x4
   \   000101   7908         MOV     R1,#0x8
    439                
    440                break;
    441          
    442              case SAMPLEAPP_FLASH_CLUSTERID: //收到组播数据
    443                flashTime = BUILD_UINT16(pkt->cmd.Data[1], pkt->cmd.Data[2] );
    444                HalLedBlink( HAL_LED_4, 4, 50, (flashTime / 4) );
   \   000103   12....       LCALL   ??HalLedBlink?relay
    445                break;
    446            }
    447          }
   \                     ??SampleApp_MessageMSGCB_0:
   \   000106   7406         MOV     A,#0x6
   \   000108   12....       LCALL   ?DEALLOC_XSTACK8
   \   00010B   02....       LJMP    ?Subroutine0 & 0xFFFF

   \                                 In  segment BANKED_CODE, align 1, keep-with-next
   \                     ?Subroutine3:
   \   000000   EE           MOV     A,R6
   \   000001   2422         ADD     A,#0x22
   \   000003   F582         MOV     DPL,A
   \   000005   EF           MOV     A,R7
   \   000006   3400         ADDC    A,#0x0
   \   000008   F583         MOV     DPH,A
   \   00000A   E0           MOVX    A,@DPTR
   \   00000B   22           RET
    448          
    449          /*********************************************************************
    450           * @fn      SampleApp_SendPeriodicMessage
    451           *
    452           * @brief   Send the periodic message.
    453           *
    454           * @param   none
    455           *
    456           * @return  none
    457           */
    458          //分析发送周期信息

   \                                 In  segment BANKED_CODE, align 1, keep-with-next
    459          void SampleApp_SendPeriodicMessage( void )
   \                     SampleApp_SendPeriodicMessage:
    460          {
   \   000000   74F6         MOV     A,#-0xa
   \   000002   12....       LCALL   ?BANKED_ENTER_XDATA
   \   000005                ; Saved register size: 10
   \   000005                ; Auto size: 3
   \   000005   74FD         MOV     A,#-0x3
   \   000007   12....       LCALL   ?ALLOC_XSTACK8
    461            byte SendData[3]="D1";
   \   00000A   85..82       MOV     DPL,?XSP + 0
   \   00000D   85..83       MOV     DPH,?XSP + 1
   \   000010   AC82         MOV     R4,DPL
   \   000012   AD83         MOV     R5,DPH
   \   000014   7583..       MOV     DPH,#(`?<Constant "D1">` >> 8) & 0xff
   \   000017   7582..       MOV     DPL,#`?<Constant "D1">` & 0xff
   \   00001A   7403         MOV     A,#0x3
   \   00001C   12....       LCALL   ?MOVE_LONG8_XDATA_XDATA
    462          
    463            // 调用AF_DataRequest将数据无线广播出去
    464            if( AF_DataRequest( &SampleApp_Periodic_DstAddr,//发送目的地址＋端点地址和传送模式
    465                                 &SampleApp_epDesc,//源(答复或确认)终端的描述（比如操作系统中任务ID等）源EP
    466                                 SAMPLEAPP_PERIODIC_CLUSTERID, //被Profile指定的有效的集群号
    467                                 2,       // 发送数据长度
    468                                 SendData,// 发送数据缓冲区
    469                                 &SampleApp_TransID,     // 任务ID号
    470                                 AF_DISCV_ROUTE,      // 有效位掩码的发送选项
    471                                 AF_DEFAULT_RADIUS ) == afStatus_SUCCESS )  //传送跳数，通常设置为AF_DEFAULT_RADIUS
   \   00001F                ; Setup parameters for call to function AF_DataRequest
   \   00001F   75..1E       MOV     ?V0 + 0,#0x1e
   \   000022   78..         MOV     R0,#?V0 + 0
   \   000024   12....       LCALL   ?PUSH_XSTACK_I_ONE
   \   000027   75....       MOV     ?V0 + 0,#SampleApp_TransID & 0xff
   \   00002A   75....       MOV     ?V0 + 1,#(SampleApp_TransID >> 8) & 0xff
   \   00002D   78..         MOV     R0,#?V0 + 0
   \   00002F   12....       LCALL   ?PUSH_XSTACK_I_TWO
   \   000032   7403         MOV     A,#0x3
   \   000034   12....       LCALL   ?XSTACK_DISP0_8
   \   000037   8582..       MOV     ?V0 + 0,DPL
   \   00003A   8583..       MOV     ?V0 + 1,DPH
   \   00003D   78..         MOV     R0,#?V0 + 0
   \   00003F   12....       LCALL   ?PUSH_XSTACK_I_TWO
   \   000042   75..02       MOV     ?V0 + 0,#0x2
   \   000045   75..00       MOV     ?V0 + 1,#0x0
   \   000048   78..         MOV     R0,#?V0 + 0
   \   00004A   12....       LCALL   ?PUSH_XSTACK_I_TWO
   \   00004D   75..01       MOV     ?V0 + 0,#0x1
   \   000050   78..         MOV     R0,#?V0 + 0
   \   000052   12....       LCALL   ?PUSH_XSTACK_I_TWO
   \   000055   7920         MOV     R1,#0x20
   \   000057   7C..         MOV     R4,#SampleApp_epDesc & 0xff
   \   000059   7D..         MOV     R5,#(SampleApp_epDesc >> 8) & 0xff
   \   00005B   7A..         MOV     R2,#SampleApp_Periodic_DstAddr & 0xff
   \   00005D   7B..         MOV     R3,#(SampleApp_Periodic_DstAddr >> 8) & 0xff
   \   00005F                REQUIRE ?Subroutine2
   \   00005F                ; // Fall through to label ?Subroutine2
    472            {
    473            }
    474            else
    475            {
    476              // HalLedSet(HAL_LED_1, HAL_LED_MODE_ON);
    477              // Error occurred in request to send.
    478            }
    479          }

   \                                 In  segment BANKED_CODE, align 1, keep-with-next
   \                     ?Subroutine2:
   \   000000   12....       LCALL   ??AF_DataRequest?relay
   \   000003   7409         MOV     A,#0x9
   \   000005   12....       LCALL   ?DEALLOC_XSTACK8
   \   000008   7403         MOV     A,#0x3
   \   00000A   80..         SJMP    ??Subroutine4_0

   \                                 In  segment BANKED_CODE, align 1, keep-with-next
   \                     ??Subroutine4_0:
   \   000000   12....       LCALL   ?DEALLOC_XSTACK8
   \   000003                REQUIRE ??Subroutine5_0
   \   000003                ; // Fall through to label ??Subroutine5_0
    480          
    481          /*********************************************************************
    482           * @fn      SampleApp_SendFlashMessage
    483           *
    484           * @brief   Send the flash message to group 1.
    485           *
    486           * @param   flashTime - in milliseconds
    487           *
    488           * @return  none
    489           */

   \                                 In  segment BANKED_CODE, align 1, keep-with-next
    490          void SampleApp_SendFlashMessage( uint16 flashTime ) //此实验没有用到，后面再分析
   \                     SampleApp_SendFlashMessage:
    491          {
   \   000000   74F6         MOV     A,#-0xa
   \   000002   12....       LCALL   ?BANKED_ENTER_XDATA
   \   000005                ; Saved register size: 10
   \   000005                ; Auto size: 3
   \   000005   74FD         MOV     A,#-0x3
   \   000007   12....       LCALL   ?ALLOC_XSTACK8
    492            uint8 buffer[3];
    493            buffer[0] = (uint8)(SampleAppFlashCounter++);
   \   00000A   90....       MOV     DPTR,#SampleAppFlashCounter
   \   00000D   E0           MOVX    A,@DPTR
   \   00000E   85..82       MOV     DPL,?XSP + 0
   \   000011   85..83       MOV     DPH,?XSP + 1
   \   000014   F0           MOVX    @DPTR,A
   \   000015   90....       MOV     DPTR,#SampleAppFlashCounter
   \   000018   E0           MOVX    A,@DPTR
   \   000019   04           INC     A
   \   00001A   F0           MOVX    @DPTR,A
    494            buffer[1] = LO_UINT16( flashTime );
   \   00001B   7401         MOV     A,#0x1
   \   00001D   12....       LCALL   ?XSTACK_DISP0_8
   \   000020   EA           MOV     A,R2
   \   000021   F0           MOVX    @DPTR,A
    495            buffer[2] = HI_UINT16( flashTime );
   \   000022   7402         MOV     A,#0x2
   \   000024   12....       LCALL   ?XSTACK_DISP0_8
   \   000027   EB           MOV     A,R3
   \   000028   F0           MOVX    @DPTR,A
    496          
    497            if ( AF_DataRequest( &SampleApp_Flash_DstAddr, &SampleApp_epDesc,
    498                                 SAMPLEAPP_FLASH_CLUSTERID,
    499                                 3,
    500                                 buffer,
    501                                 &SampleApp_TransID,
    502                                 AF_DISCV_ROUTE,
    503                                 AF_DEFAULT_RADIUS ) == afStatus_SUCCESS )
   \   000029                ; Setup parameters for call to function AF_DataRequest
   \   000029   75..1E       MOV     ?V0 + 0,#0x1e
   \   00002C   78..         MOV     R0,#?V0 + 0
   \   00002E   12....       LCALL   ?PUSH_XSTACK_I_ONE
   \   000031   75....       MOV     ?V0 + 0,#SampleApp_TransID & 0xff
   \   000034   75....       MOV     ?V0 + 1,#(SampleApp_TransID >> 8) & 0xff
   \   000037   78..         MOV     R0,#?V0 + 0
   \   000039   12....       LCALL   ?PUSH_XSTACK_I_TWO
   \   00003C   7403         MOV     A,#0x3
   \   00003E   12....       LCALL   ?XSTACK_DISP0_8
   \   000041   8582..       MOV     ?V0 + 0,DPL
   \   000044   8583..       MOV     ?V0 + 1,DPH
   \   000047   78..         MOV     R0,#?V0 + 0
   \   000049   12....       LCALL   ?PUSH_XSTACK_I_TWO
   \   00004C   75..03       MOV     ?V0 + 0,#0x3
   \   00004F   75..00       MOV     ?V0 + 1,#0x0
   \   000052   78..         MOV     R0,#?V0 + 0
   \   000054   12....       LCALL   ?PUSH_XSTACK_I_TWO
   \   000057   75..02       MOV     ?V0 + 0,#0x2
   \   00005A   78..         MOV     R0,#?V0 + 0
   \   00005C   12....       LCALL   ?PUSH_XSTACK_I_TWO
   \   00005F   7920         MOV     R1,#0x20
   \   000061   7C..         MOV     R4,#SampleApp_epDesc & 0xff
   \   000063   7D..         MOV     R5,#(SampleApp_epDesc >> 8) & 0xff
   \   000065   7A..         MOV     R2,#SampleApp_Flash_DstAddr & 0xff
   \   000067   7B..         MOV     R3,#(SampleApp_Flash_DstAddr >> 8) & 0xff
   \   000069   02....       LJMP    ?Subroutine2 & 0xFFFF
    504            {
    505            }
    506            else
    507            {
    508              // Error occurred in request to send.
    509            }
    510          }
    511          
    512          /*********************************************************************
    513          *********************************************************************/

   \                                 In  segment BANKED_CODE, align 1, keep-with-next
   \                     ?Subroutine1:
   \   000000   740C         MOV     A,#0xc
   \   000002   12....       LCALL   ?MOVE_LONG8_XDATA_XDATA
   \   000005                ; Setup parameters for call to function AF_DataRequest
   \   000005                ; Setup parameters for call to function AF_DataRequest
   \   000005   75..1E       MOV     ?V0 + 0,#0x1e
   \   000008   78..         MOV     R0,#?V0 + 0
   \   00000A   12....       LCALL   ?PUSH_XSTACK_I_ONE
   \   00000D   75....       MOV     ?V0 + 0,#SampleApp_TransID & 0xff
   \   000010   75....       MOV     ?V0 + 1,#(SampleApp_TransID >> 8) & 0xff
   \   000013   78..         MOV     R0,#?V0 + 0
   \   000015   12....       LCALL   ?PUSH_XSTACK_I_TWO
   \   000018   7403         MOV     A,#0x3
   \   00001A   12....       LCALL   ?XSTACK_DISP0_8
   \   00001D   8582..       MOV     ?V0 + 0,DPL
   \   000020   8583..       MOV     ?V0 + 1,DPH
   \   000023   78..         MOV     R0,#?V0 + 0
   \   000025   12....       LCALL   ?PUSH_XSTACK_I_TWO
   \   000028   75..0C       MOV     ?V0 + 0,#0xc
   \   00002B   75..00       MOV     ?V0 + 1,#0x0
   \   00002E   78..         MOV     R0,#?V0 + 0
   \   000030   12....       LCALL   ?PUSH_XSTACK_I_TWO
   \   000033   75..01       MOV     ?V0 + 0,#0x1
   \   000036   78..         MOV     R0,#?V0 + 0
   \   000038   12....       LCALL   ?PUSH_XSTACK_I_TWO
   \   00003B   7920         MOV     R1,#0x20
   \   00003D   7C..         MOV     R4,#SampleApp_epDesc & 0xff
   \   00003F   7D..         MOV     R5,#(SampleApp_epDesc >> 8) & 0xff
   \   000041   7A..         MOV     R2,#SampleApp_Periodic_DstAddr & 0xff
   \   000043   7B..         MOV     R3,#(SampleApp_Periodic_DstAddr >> 8) & 0xff
   \   000045   12....       LCALL   ??AF_DataRequest?relay
   \   000048   7409         MOV     A,#0x9
   \   00004A   12....       LCALL   ?DEALLOC_XSTACK8
   \   00004D   740C         MOV     A,#0xc
   \   00004F                REQUIRE ??Subroutine4_0
   \   00004F                ; // Fall through to label ??Subroutine4_0

   \                                 In  segment BANKED_CODE, align 1, keep-with-next
    514          void COMD_ON( void )
   \                     COMD_ON:
    515          {
   \   000000   74F6         MOV     A,#-0xa
   \   000002   12....       LCALL   ?BANKED_ENTER_XDATA
   \   000005                ; Saved register size: 10
   \   000005                ; Auto size: 12
   \   000005   74F4         MOV     A,#-0xc
   \   000007   12....       LCALL   ?ALLOC_XSTACK8
    516            byte SendData[12]="GCR201cc\d\r";
                                              ^
Warning[Pe192]: unrecognized character escape sequence
   \   00000A   85..82       MOV     DPL,?XSP + 0
   \   00000D   85..83       MOV     DPH,?XSP + 1
   \   000010   AC82         MOV     R4,DPL
   \   000012   AD83         MOV     R5,DPH
   \   000014   7583..       MOV     DPH,#(`?<Constant "GCR201ccd\\r">` >> 8) & 0xff
   \   000017   7582..       MOV     DPL,#`?<Constant "GCR201ccd\\r">` & 0xff
   \   00001A   02....       LJMP    ?Subroutine1 & 0xFFFF
    517          
    518            // 调用AF_DataRequest将数据无线广播出去
    519            if( AF_DataRequest( &SampleApp_Periodic_DstAddr,//发送目的地址＋端点地址和传送模式
    520                                 &SampleApp_epDesc,//源(答复或确认)终端的描述（比如操作系统中任务ID等）源EP
    521                                 SAMPLEAPP_PERIODIC_CLUSTERID, //被Profile指定的有效的集群号
    522                                 12,       // 发送数据长度
    523                                 SendData,// 发送数据缓冲区
    524                                 &SampleApp_TransID,     // 任务ID号
    525                                 AF_DISCV_ROUTE,      // 有效位掩码的发送选项
    526                                 AF_DEFAULT_RADIUS ) == afStatus_SUCCESS )  //传送跳数，通常设置为AF_DEFAULT_RADIUS
    527            {
    528            }
    529            else
    530            {
    531              // HalLedSet(HAL_LED_2, HAL_LED_MODE_ON);
    532              // Error occurred in request to send.
    533            }
    534          }
    535          

   \                                 In  segment BANKED_CODE, align 1, keep-with-next
    536          void COMD_OFF( void )
   \                     COMD_OFF:
    537          {
   \   000000   74F6         MOV     A,#-0xa
   \   000002   12....       LCALL   ?BANKED_ENTER_XDATA
   \   000005                ; Saved register size: 10
   \   000005                ; Auto size: 12
   \   000005   74F4         MOV     A,#-0xc
   \   000007   12....       LCALL   ?ALLOC_XSTACK8
    538            byte SendData[12]="GCR200cc\d\r";
                                              ^
Warning[Pe192]: unrecognized character escape sequence
   \   00000A   85..82       MOV     DPL,?XSP + 0
   \   00000D   85..83       MOV     DPH,?XSP + 1
   \   000010   AC82         MOV     R4,DPL
   \   000012   AD83         MOV     R5,DPH
   \   000014   7583..       MOV     DPH,#(`?<Constant "GCR200ccd\\r">` >> 8) & 0xff
   \   000017   7582..       MOV     DPL,#`?<Constant "GCR200ccd\\r">` & 0xff
   \   00001A   02....       LJMP    ?Subroutine1 & 0xFFFF
    539          
    540            // 调用AF_DataRequest将数据无线广播出去
    541            if( AF_DataRequest( &SampleApp_Periodic_DstAddr,//发送目的地址＋端点地址和传送模式
    542                                 &SampleApp_epDesc,//源(答复或确认)终端的描述（比如操作系统中任务ID等）源EP
    543                                 SAMPLEAPP_PERIODIC_CLUSTERID, //被Profile指定的有效的集群号
    544                                 12,       // 发送数据长度
    545                                 SendData,// 发送数据缓冲区
    546                                 &SampleApp_TransID,     // 任务ID号
    547                                 AF_DISCV_ROUTE,      // 有效位掩码的发送选项
    548                                 AF_DEFAULT_RADIUS ) == afStatus_SUCCESS )  //传送跳数，通常设置为AF_DEFAULT_RADIUS
    549            {
    550            }
    551            else
    552            {
    553              // HalLedSet(HAL_LED_2, HAL_LED_MODE_ON);
    554              // Error occurred in request to send.
    555            }
    556          }

   \                                 In  segment BANK_RELAYS, align 1
   \                     ??SampleApp_Init?relay:
   \   000000   12....       LCALL   ?BDISPATCH
   \   000003   ......       DC24    SampleApp_Init

   \                                 In  segment BANK_RELAYS, align 1
   \                     ??SampleApp_ProcessEvent?relay:
   \   000000   12....       LCALL   ?BDISPATCH
   \   000003   ......       DC24    SampleApp_ProcessEvent

   \                                 In  segment BANK_RELAYS, align 1
   \                     ??SampleApp_HandleKeys?relay:
   \   000000   12....       LCALL   ?BDISPATCH
   \   000003   ......       DC24    SampleApp_HandleKeys

   \                                 In  segment BANK_RELAYS, align 1
   \                     ??SampleApp_MessageMSGCB?relay:
   \   000000   12....       LCALL   ?BDISPATCH
   \   000003   ......       DC24    SampleApp_MessageMSGCB

   \                                 In  segment BANK_RELAYS, align 1
   \                     ??SampleApp_SendPeriodicMessage?relay:
   \   000000   12....       LCALL   ?BDISPATCH
   \   000003   ......       DC24    SampleApp_SendPeriodicMessage

   \                                 In  segment BANK_RELAYS, align 1
   \                     ??SampleApp_SendFlashMessage?relay:
   \   000000   12....       LCALL   ?BDISPATCH
   \   000003   ......       DC24    SampleApp_SendFlashMessage

   \                                 In  segment BANK_RELAYS, align 1
   \                     ??COMD_ON?relay:
   \   000000   12....       LCALL   ?BDISPATCH
   \   000003   ......       DC24    COMD_ON

   \                                 In  segment BANK_RELAYS, align 1
   \                     ??COMD_OFF?relay:
   \   000000   12....       LCALL   ?BDISPATCH
   \   000003   ......       DC24    COMD_OFF

   \                                 In  segment XDATA_ROM_C, align 1
   \                     `?<Constant "Group 1">`:
   \   000000   47726F75     DB "Group 1"
   \            70203100

   \                                 In  segment XDATA_ROM_C, align 1
   \                     `?<Constant "SampleApp">`:
   \   000000   53616D70     DB "SampleApp"
   \            6C654170
   \            7000    

   \                                 In  segment XDATA_ROM_C, align 1
   \                     `?<Constant "D1">`:
   \   000000   443100       DB "D1"

   \                                 In  segment XDATA_ROM_C, align 1
   \                     `?<Constant "GCR201ccd\\r">`:
   \   000000   47435232     DB "GCR201ccd\015"
   \            30316363
   \            640D00  
   \   00000B   00           DB 0

   \                                 In  segment XDATA_ROM_C, align 1
   \                     `?<Constant "GCR200ccd\\r">`:
   \   000000   47435232     DB "GCR200ccd\015"
   \            30306363
   \            640D00  
   \   00000B   00           DB 0

   Maximum stack usage in bytes:

     Function                       ISTACK PSTACK XSTACK
     --------                       ------ ------ ------
     COMD_OFF                           2      0     31
       -> AF_DataRequest                0      0     62
     COMD_ON                            2      0     31
       -> AF_DataRequest                0      0     62
     SampleApp_HandleKeys               0      0     10
       -> SampleApp_SendFlashMessage
                                        0      0     20
       -> aps_FindGroup                 0      0     20
       -> aps_RemoveGroup               0      0     20
       -> aps_AddGroup                  0      0     20
     SampleApp_Init                     0      0     14
       -> afRegister                    0      0     22
       -> RegisterForKeys               0      0     22
       -> osal_memcpy                   0      0     28
       -> aps_AddGroup                  0      0     22
       -> HalLcdWriteString             0      0     22
     SampleApp_MessageMSGCB             0      0     32
       -> osal_memset                   0      0     34
       -> osal_memcpy                   0      0     40
       -> HalLedBlink                   0      0     34
       -> HalLedSet                     0      0     34
       -> HalLedSet                     0      0     34
       -> HalLedBlink                   0      0     34
     SampleApp_ProcessEvent             0      0     12
       -> osal_msg_receive              0      0     24
       -> osal_start_timerEx            0      0     24
       -> osal_msg_deallocate           0      0     24
       -> osal_msg_receive              0      0     24
       -> SampleApp_MessageMSGCB        0      0     24
       -> SampleApp_SendPeriodicMessage
                                        0      0     24
       -> osal_rand                     0      0     24
       -> osal_start_timerEx            0      0     24
     SampleApp_SendFlashMessage         1      0     32
       -> AF_DataRequest                0      0     44
     SampleApp_SendPeriodicMessage      2      0     34
       -> AF_DataRequest                0      0     44


   Segment part sizes:

     Function/Label                        Bytes
     --------------                        -----
     SampleApp_ClusterList                    4
     SampleApp_SimpleDesc                    12
     SampleApp_epDesc                         6
     SampleApp_TaskID                         1
     SampleApp_NwkState                       1
     SampleApp_TransID                        1
     SampleApp_Periodic_DstAddr              12
     SampleApp_Flash_DstAddr                 12
     SampleApp_Group                         18
     SampleAppPeriodicCounter                 1
     SampleAppFlashCounter                    1
     SampleApp_Init                         154
     ?Subroutine0                             5
     SampleApp_ProcessEvent                 152
     SampleApp_HandleKeys                    62
     ??Subroutine5_0                          5
     SampleApp_MessageMSGCB                 270
     ?Subroutine3                            12
     SampleApp_SendPeriodicMessage           95
     ?Subroutine2                            12
     ??Subroutine4_0                          3
     SampleApp_SendFlashMessage             108
     ?Subroutine1                            79
     COMD_ON                                 29
     COMD_OFF                                29
     ??SampleApp_Init?relay                   6
     ??SampleApp_ProcessEvent?relay           6
     ??SampleApp_HandleKeys?relay             6
     ??SampleApp_MessageMSGCB?relay           6
     ??SampleApp_SendPeriodicMessage?relay    6
     ??SampleApp_SendFlashMessage?relay       6
     ??COMD_ON?relay                          6
     ??COMD_OFF?relay                         6
     ?<Constant "Group 1">                    8
     ?<Constant "SampleApp">                 10
     ?<Constant "D1">                         3
     ?<Constant "GCR201ccd\r">               12
     ?<Constant "GCR200ccd\r">               12

 
 1 015 bytes in segment BANKED_CODE
    48 bytes in segment BANK_RELAYS
    61 bytes in segment XDATA_ROM_C
    53 bytes in segment XDATA_Z
 
 1 063 bytes of CODE  memory
    61 bytes of CONST memory
    53 bytes of XDATA memory

Errors: none
Warnings: 2
