///////////////////////////////////////////////////////////////////////////////
//                                                                            /
// IAR C/C++ Compiler V8.10.3.10338/W32 for 8051        24/Oct/2017  13:07:23 /
// Copyright 2004-2011 IAR Systems AB.                                        /
//                                                                            /
//    Core               =  plain                                             /
//    Code model         =  banked                                            /
//    Data model         =  large                                             /
//    Calling convention =  xdata reentrant                                   /
//    Constant location  =  data_rom                                          /
//    Dptr setup         =  1,16                                              /
//    Source file        =  E:\Texas Instruments\ZStack-CC2530-2.5.1a\Project /
//                          s\zstack\Work_ZigBee\GreenClassroom\Source\hal_st /
//                          ep_motor.c                                        /
//    Command line       =  -f "E:\Texas Instruments\ZStack-CC2530-2.5.1a\Pro /
//                          jects\zstack\Work_ZigBee\GreenClassroom\CC2530DB\ /
//                          ..\..\..\Tools\CC2530DB\f8wCoord.cfg"             /
//                          (-DCPU32MHZ -DROOT=__near_func                    /
//                          -DMAC_CFG_APP_PENDING_QUEUE=TRUE                  /
//                          -DMAC_CFG_TX_DATA_MAX=5 -DMAC_CFG_TX_MAX=8        /
//                          -DMAC_CFG_RX_MAX=5 -DZDO_COORDINATOR -DRTR_NWK)   /
//                          -f "E:\Texas Instruments\ZStack-CC2530-2.5.1a\Pro /
//                          jects\zstack\Work_ZigBee\GreenClassroom\CC2530DB\ /
//                          ..\..\..\Tools\CC2530DB\f8wConfig.cfg"            /
//                          (-DZIGBEEPRO -DSECURE=0 -DZG_SECURE_DYNAMIC=0     /
//                          -DREFLECTOR -DDEFAULT_CHANLIST=0x00000800         /
//                          -DZDAPP_CONFIG_PAN_ID=0xFFFF                      /
//                          -DNWK_START_DELAY=100 -DEXTENDED_JOINING_RANDOM_M /
//                          ASK=0x007F -DBEACON_REQUEST_DELAY=100             /
//                          -DBEACON_REQ_DELAY_MASK=0x00FF                    /
//                          -DLINK_STATUS_JITTER_MASK=0x007F                  /
//                          -DROUTE_EXPIRY_TIME=30 -DAPSC_ACK_WAIT_DURATION_P /
//                          OLLED=3000 -DNWK_INDIRECT_MSG_TIMEOUT=7           /
//                          -DMAX_RREQ_ENTRIES=8 -DAPSC_MAX_FRAME_RETRIES=3   /
//                          -DNWK_MAX_DATA_RETRIES=2                          /
//                          -DMAX_POLL_FAILURE_RETRIES=2 -DMAX_BCAST=9        /
//                          -DAPS_MAX_GROUPS=16 -DMAX_RTG_ENTRIES=40          /
//                          -DNWK_MAX_BINDING_ENTRIES=4                       /
//                          -DMAX_BINDING_CLUSTER_IDS=4                       /
//                          "-DDEFAULT_KEY={0x01, 0x03, 0x05, 0x07, 0x09,     /
//                          0x0B, 0x0D, 0x0F, 0x00, 0x02, 0x04, 0x06, 0x08,   /
//                          0x0A, 0x0C, 0x0D}" -DMAC_MAX_FRAME_SIZE=116       /
//                          -DZDNWKMGR_MIN_TRANSMISSIONS=20 "-DCONST=const    /
//                          __code" -DGENERIC=__generic                       /
//                          -DRFD_RCVC_ALWAYS_ON=FALSE -DPOLL_RATE=1000       /
//                          -DQUEUED_POLL_RATE=100 -DRESPONSE_POLL_RATE=100)  /
//                          -DREJOIN_POLL_RATE=440 "E:\Texas                  /
//                          Instruments\ZStack-CC2530-2.5.1a\Projects\zstack\ /
//                          Work_ZigBee\GreenClassroom\Source\hal_step_motor. /
//                          c" -D ZTOOL_P1 -D MT_TASK -D MT_SYS_FUNC -D       /
//                          MT_ZDO_FUNC -D LCD_SUPPORTED=DEBUG -lC "E:\Texas  /
//                          Instruments\ZStack-CC2530-2.5.1a\Projects\zstack\ /
//                          Work_ZigBee\GreenClassroom\CC2530DB\CoordinatorEB /
//                          \List\" -lA "E:\Texas Instruments\ZStack-CC2530-2 /
//                          .5.1a\Projects\zstack\Work_ZigBee\GreenClassroom\ /
//                          CC2530DB\CoordinatorEB\List\" --diag_suppress     /
//                          Pe001,Pa010 -o "E:\Texas                          /
//                          Instruments\ZStack-CC2530-2.5.1a\Projects\zstack\ /
//                          Work_ZigBee\GreenClassroom\CC2530DB\CoordinatorEB /
//                          \Obj\" -e --no_code_motion --debug --core=plain   /
//                          --dptr=16,1 --data_model=large                    /
//                          --code_model=banked --calling_convention=xdata_re /
//                          entrant --place_constants=data_rom                /
//                          --nr_virtual_regs 16 -I "E:\Texas                 /
//                          Instruments\ZStack-CC2530-2.5.1a\Projects\zstack\ /
//                          Work_ZigBee\GreenClassroom\CC2530DB\" -I          /
//                          "E:\Texas Instruments\ZStack-CC2530-2.5.1a\Projec /
//                          ts\zstack\Work_ZigBee\GreenClassroom\CC2530DB\..\ /
//                          Source\" -I "E:\Texas Instruments\ZStack-CC2530-2 /
//                          .5.1a\Projects\zstack\Work_ZigBee\GreenClassroom\ /
//                          CC2530DB\..\..\..\ZMain\TI2530DB\" -I "E:\Texas   /
//                          Instruments\ZStack-CC2530-2.5.1a\Projects\zstack\ /
//                          Work_ZigBee\GreenClassroom\CC2530DB\..\..\..\..\. /
//                          .\Components\hal\include\" -I "E:\Texas           /
//                          Instruments\ZStack-CC2530-2.5.1a\Projects\zstack\ /
//                          Work_ZigBee\GreenClassroom\CC2530DB\..\..\..\..\. /
//                          .\Components\hal\target\CC2530EB\" -I "E:\Texas   /
//                          Instruments\ZStack-CC2530-2.5.1a\Projects\zstack\ /
//                          Work_ZigBee\GreenClassroom\CC2530DB\..\..\..\..\. /
//                          .\Components\mac\include\" -I "E:\Texas           /
//                          Instruments\ZStack-CC2530-2.5.1a\Projects\zstack\ /
//                          Work_ZigBee\GreenClassroom\CC2530DB\..\..\..\..\. /
//                          .\Components\mac\high_level\" -I "E:\Texas        /
//                          Instruments\ZStack-CC2530-2.5.1a\Projects\zstack\ /
//                          Work_ZigBee\GreenClassroom\CC2530DB\..\..\..\..\. /
//                          .\Components\mac\low_level\srf04\" -I "E:\Texas   /
//                          Instruments\ZStack-CC2530-2.5.1a\Projects\zstack\ /
//                          Work_ZigBee\GreenClassroom\CC2530DB\..\..\..\..\. /
//                          .\Components\mac\low_level\srf04\single_chip\"    /
//                          -I "E:\Texas Instruments\ZStack-CC2530-2.5.1a\Pro /
//                          jects\zstack\Work_ZigBee\GreenClassroom\CC2530DB\ /
//                          ..\..\..\..\..\Components\mt\" -I "E:\Texas       /
//                          Instruments\ZStack-CC2530-2.5.1a\Projects\zstack\ /
//                          Work_ZigBee\GreenClassroom\CC2530DB\..\..\..\..\. /
//                          .\Components\osal\include\" -I "E:\Texas          /
//                          Instruments\ZStack-CC2530-2.5.1a\Projects\zstack\ /
//                          Work_ZigBee\GreenClassroom\CC2530DB\..\..\..\..\. /
//                          .\Components\services\saddr\" -I "E:\Texas        /
//                          Instruments\ZStack-CC2530-2.5.1a\Projects\zstack\ /
//                          Work_ZigBee\GreenClassroom\CC2530DB\..\..\..\..\. /
//                          .\Components\services\sdata\" -I "E:\Texas        /
//                          Instruments\ZStack-CC2530-2.5.1a\Projects\zstack\ /
//                          Work_ZigBee\GreenClassroom\CC2530DB\..\..\..\..\. /
//                          .\Components\stack\af\" -I "E:\Texas              /
//                          Instruments\ZStack-CC2530-2.5.1a\Projects\zstack\ /
//                          Work_ZigBee\GreenClassroom\CC2530DB\..\..\..\..\. /
//                          .\Components\stack\nwk\" -I "E:\Texas             /
//                          Instruments\ZStack-CC2530-2.5.1a\Projects\zstack\ /
//                          Work_ZigBee\GreenClassroom\CC2530DB\..\..\..\..\. /
//                          .\Components\stack\sapi\" -I "E:\Texas            /
//                          Instruments\ZStack-CC2530-2.5.1a\Projects\zstack\ /
//                          Work_ZigBee\GreenClassroom\CC2530DB\..\..\..\..\. /
//                          .\Components\stack\sec\" -I "E:\Texas             /
//                          Instruments\ZStack-CC2530-2.5.1a\Projects\zstack\ /
//                          Work_ZigBee\GreenClassroom\CC2530DB\..\..\..\..\. /
//                          .\Components\stack\sys\" -I "E:\Texas             /
//                          Instruments\ZStack-CC2530-2.5.1a\Projects\zstack\ /
//                          Work_ZigBee\GreenClassroom\CC2530DB\..\..\..\..\. /
//                          .\Components\stack\zdo\" -I "E:\Texas             /
//                          Instruments\ZStack-CC2530-2.5.1a\Projects\zstack\ /
//                          Work_ZigBee\GreenClassroom\CC2530DB\..\..\..\..\. /
//                          .\Components\zmac\" -I "E:\Texas                  /
//                          Instruments\ZStack-CC2530-2.5.1a\Projects\zstack\ /
//                          Work_ZigBee\GreenClassroom\CC2530DB\..\..\..\..\. /
//                          .\Components\zmac\f8w\" -Ohz --require_prototypes /
//    List file          =  E:\Texas Instruments\ZStack-CC2530-2.5.1a\Project /
//                          s\zstack\Work_ZigBee\GreenClassroom\CC2530DB\Coor /
//                          dinatorEB\List\hal_step_motor.s51                 /
//                                                                            /
//                                                                            /
///////////////////////////////////////////////////////////////////////////////

        NAME hal_step_motor

        RTMODEL "__SystemLibrary", "CLib"
        RTMODEL "__calling_convention", "xdata_reentrant"
        RTMODEL "__code_model", "banked"
        RTMODEL "__core", "plain"
        RTMODEL "__data_model", "large"
        RTMODEL "__dptr_size", "16"
        RTMODEL "__extended_stack", "disabled"
        RTMODEL "__location_for_constants", "data"
        RTMODEL "__number_of_dptrs", "1"
        RTMODEL "__rt_version", "1"

        RSEG DOVERLAY:DATA:NOROOT(0)
        RSEG IOVERLAY:IDATA:NOROOT(0)
        RSEG ISTACK:IDATA:NOROOT(0)
        RSEG PSTACK:XDATA:NOROOT(0)
        RSEG XSTACK:XDATA:NOROOT(0)

        EXTERN ?BANKED_ENTER_XDATA
        EXTERN ?BANKED_LEAVE_XDATA
        EXTERN ?BDISPATCH
        EXTERN ?BRET
        EXTERN __INIT_XDATA_I
        EXTERN __INIT_XDATA_Z

        PUBLIC ??hal_step_motor_drive?relay
        FUNCTION ??hal_step_motor_drive?relay,0203H
        PUBLIC ??hal_step_motor_init?relay
        FUNCTION ??hal_step_motor_init?relay,0203H
        PUBLIC ??hal_step_motor_round_trip?relay
        FUNCTION ??hal_step_motor_round_trip?relay,0203H
        PUBLIC ??hal_step_motor_start?relay
        FUNCTION ??hal_step_motor_start?relay,0203H
        PUBLIC ??hal_step_motor_stop?relay
        FUNCTION ??hal_step_motor_stop?relay,0203H
        PUBWEAK P1DIR
        PUBWEAK P1SEL
        PUBWEAK _A_P1
        PUBLIC hal_step_motor_drive
        FUNCTION hal_step_motor_drive,021203H
        ARGFRAME XSTACK, 0, STACK
        LOCFRAME ISTACK, 4, STACK
        PUBLIC hal_step_motor_init
        FUNCTION hal_step_motor_init,0203H
        ARGFRAME XSTACK, 0, STACK
        PUBLIC hal_step_motor_round_trip
        FUNCTION hal_step_motor_round_trip,021203H
        ARGFRAME XSTACK, 0, STACK
        LOCFRAME ISTACK, 2, STACK
        PUBLIC hal_step_motor_start
        FUNCTION hal_step_motor_start,021203H
        ARGFRAME XSTACK, 0, STACK
        LOCFRAME XSTACK, 9, STACK
        PUBLIC hal_step_motor_stop
        FUNCTION hal_step_motor_stop,021203H
        ARGFRAME XSTACK, 0, STACK
        LOCFRAME ISTACK, 2, STACK
        PUBLIC route_trip_rout
        
        CFI Names cfiNames0
        CFI StackFrame CFA_SP SP IDATA
        CFI StackFrame CFA_PSP16 PSP16 XDATA
        CFI StackFrame CFA_XSP16 XSP16 XDATA
        CFI StaticOverlayFrame CFA_IOVERLAY IOVERLAY
        CFI StaticOverlayFrame CFA_DOVERLAY DOVERLAY
        CFI Resource `PSW.CY`:1, `B.BR0`:1, `B.BR1`:1, `B.BR2`:1, `B.BR3`:1
        CFI Resource `B.BR4`:1, `B.BR5`:1, `B.BR6`:1, `B.BR7`:1, `VB.BR8`:1
        CFI Resource `VB.BR9`:1, `VB.BR10`:1, `VB.BR11`:1, `VB.BR12`:1
        CFI Resource `VB.BR13`:1, `VB.BR14`:1, `VB.BR15`:1, VB:8, B:8, A:8
        CFI Resource PSW:8, DPL0:8, DPH0:8, R0:8, R1:8, R2:8, R3:8, R4:8, R5:8
        CFI Resource R6:8, R7:8, V0:8, V1:8, V2:8, V3:8, V4:8, V5:8, V6:8, V7:8
        CFI Resource V8:8, V9:8, V10:8, V11:8, V12:8, V13:8, V14:8, V15:8, SP:8
        CFI Resource PSPH:8, PSPL:8, PSP16:16, XSPH:8, XSPL:8, XSP16:16
        CFI VirtualResource ?RET:24
        CFI Resource ?BRET_EXT:8
        CFI VirtualResource ?RET_HIGH:8, ?RET_LOW:8
        CFI ResourceParts PSP16 PSPH, PSPL
        CFI ResourceParts XSP16 XSPH, XSPL
        CFI ResourceParts ?RET ?BRET_EXT, ?RET_HIGH, ?RET_LOW
        CFI EndNames cfiNames0
        
        CFI Common cfiCommon0 Using cfiNames0
        CFI CodeAlign 1
        CFI DataAlign -1
        CFI ReturnAddress ?RET CODE
        CFI CFA_DOVERLAY Used
        CFI CFA_IOVERLAY Used
        CFI CFA_SP SP+-3
        CFI CFA_PSP16 PSP16+0
        CFI CFA_XSP16 XSP16+0
        CFI `PSW.CY` SameValue
        CFI `B.BR0` SameValue
        CFI `B.BR1` SameValue
        CFI `B.BR2` SameValue
        CFI `B.BR3` SameValue
        CFI `B.BR4` SameValue
        CFI `B.BR5` SameValue
        CFI `B.BR6` SameValue
        CFI `B.BR7` SameValue
        CFI `VB.BR8` SameValue
        CFI `VB.BR9` SameValue
        CFI `VB.BR10` SameValue
        CFI `VB.BR11` SameValue
        CFI `VB.BR12` SameValue
        CFI `VB.BR13` SameValue
        CFI `VB.BR14` SameValue
        CFI `VB.BR15` SameValue
        CFI VB SameValue
        CFI B Undefined
        CFI A Undefined
        CFI PSW SameValue
        CFI DPL0 SameValue
        CFI DPH0 SameValue
        CFI R0 Undefined
        CFI R1 Undefined
        CFI R2 Undefined
        CFI R3 Undefined
        CFI R4 Undefined
        CFI R5 Undefined
        CFI R6 SameValue
        CFI R7 SameValue
        CFI V0 SameValue
        CFI V1 SameValue
        CFI V2 SameValue
        CFI V3 SameValue
        CFI V4 SameValue
        CFI V5 SameValue
        CFI V6 SameValue
        CFI V7 SameValue
        CFI V8 SameValue
        CFI V9 SameValue
        CFI V10 SameValue
        CFI V11 SameValue
        CFI V12 SameValue
        CFI V13 SameValue
        CFI V14 SameValue
        CFI V15 SameValue
        CFI PSPH Undefined
        CFI PSPL Undefined
        CFI XSPH Undefined
        CFI XSPL Undefined
        CFI ?RET Concat
        CFI ?BRET_EXT Frame(CFA_SP, 3)
        CFI ?RET_HIGH Frame(CFA_SP, 2)
        CFI ?RET_LOW Frame(CFA_SP, 1)
        CFI EndCommon cfiCommon0
        
        
        CFI Common cfiCommon1 Using cfiNames0
        CFI CodeAlign 1
        CFI DataAlign -1
        CFI ReturnAddress ?RET CODE
        CFI CFA_DOVERLAY Used
        CFI CFA_IOVERLAY Used
        CFI CFA_SP SP+-2
        CFI CFA_PSP16 PSP16+0
        CFI CFA_XSP16 XSP16+0
        CFI `PSW.CY` SameValue
        CFI `B.BR0` SameValue
        CFI `B.BR1` SameValue
        CFI `B.BR2` SameValue
        CFI `B.BR3` SameValue
        CFI `B.BR4` SameValue
        CFI `B.BR5` SameValue
        CFI `B.BR6` SameValue
        CFI `B.BR7` SameValue
        CFI `VB.BR8` SameValue
        CFI `VB.BR9` SameValue
        CFI `VB.BR10` SameValue
        CFI `VB.BR11` SameValue
        CFI `VB.BR12` SameValue
        CFI `VB.BR13` SameValue
        CFI `VB.BR14` SameValue
        CFI `VB.BR15` SameValue
        CFI VB SameValue
        CFI B SameValue
        CFI A SameValue
        CFI PSW SameValue
        CFI DPL0 SameValue
        CFI DPH0 SameValue
        CFI R0 SameValue
        CFI R1 SameValue
        CFI R2 SameValue
        CFI R3 SameValue
        CFI R4 SameValue
        CFI R5 SameValue
        CFI R6 SameValue
        CFI R7 SameValue
        CFI V0 SameValue
        CFI V1 SameValue
        CFI V2 SameValue
        CFI V3 SameValue
        CFI V4 SameValue
        CFI V5 SameValue
        CFI V6 SameValue
        CFI V7 SameValue
        CFI V8 SameValue
        CFI V9 SameValue
        CFI V10 SameValue
        CFI V11 SameValue
        CFI V12 SameValue
        CFI V13 SameValue
        CFI V14 SameValue
        CFI V15 SameValue
        CFI PSPH Undefined
        CFI PSPL Undefined
        CFI XSPH Undefined
        CFI XSPL Undefined
        CFI ?RET Concat
        CFI ?BRET_EXT SameValue
        CFI ?RET_HIGH Frame(CFA_SP, 2)
        CFI ?RET_LOW Frame(CFA_SP, 1)
        CFI EndCommon cfiCommon1
        
osal_start_reload_timer SYMBOL "osal_start_reload_timer"
osal_stop_timerEx   SYMBOL "osal_stop_timerEx"
osal_set_event      SYMBOL "osal_set_event"
??osal_set_event?relay SYMBOL "?relay", osal_set_event
??osal_start_reload_timer?relay SYMBOL "?relay", osal_start_reload_timer
??osal_stop_timerEx?relay SYMBOL "?relay", osal_stop_timerEx
hal_step_motor_drive SYMBOL "hal_step_motor_drive"
??hal_step_motor_drive?relay SYMBOL "?relay", hal_step_motor_drive
hal_step_motor_init SYMBOL "hal_step_motor_init"
??hal_step_motor_init?relay SYMBOL "?relay", hal_step_motor_init
hal_step_motor_round_trip SYMBOL "hal_step_motor_round_trip"
??hal_step_motor_round_trip?relay SYMBOL "?relay", hal_step_motor_round_trip
hal_step_motor_start SYMBOL "hal_step_motor_start"
??hal_step_motor_start?relay SYMBOL "?relay", hal_step_motor_start
hal_step_motor_stop SYMBOL "hal_step_motor_stop"
??hal_step_motor_stop?relay SYMBOL "?relay", hal_step_motor_stop

        EXTERN osal_start_reload_timer
        FUNCTION osal_start_reload_timer,0202H
        ARGFRAME ISTACK, 2, STACK
        ARGFRAME PSTACK, 0, STACK
        ARGFRAME XSTACK, 9, STACK
        ARGFRAME IOVERLAY, 0, STATIC
        ARGFRAME DOVERLAY, 0, STATIC
        EXTERN osal_stop_timerEx
        FUNCTION osal_stop_timerEx,0202H
        ARGFRAME ISTACK, 2, STACK
        ARGFRAME PSTACK, 0, STACK
        ARGFRAME XSTACK, 0, STACK
        ARGFRAME IOVERLAY, 0, STATIC
        ARGFRAME DOVERLAY, 0, STATIC
        EXTERN osal_set_event
        FUNCTION osal_set_event,0202H
        ARGFRAME ISTACK, 2, STACK
        ARGFRAME PSTACK, 0, STACK
        ARGFRAME XSTACK, 0, STACK
        ARGFRAME IOVERLAY, 0, STATIC
        ARGFRAME DOVERLAY, 0, STATIC
        EXTERN ??osal_set_event?relay
        FUNCTION ??osal_set_event?relay,00H
        EXTERN ??osal_start_reload_timer?relay
        FUNCTION ??osal_start_reload_timer?relay,00H
        EXTERN ??osal_stop_timerEx?relay
        FUNCTION ??osal_stop_timerEx?relay,00H
        EXTERN Hal_TaskID

// E:\Texas Instruments\ZStack-CC2530-2.5.1a\Projects\zstack\Work_ZigBee\GreenClassroom\Source\hal_step_motor.c
//    1 #include "hal_step_motor.h"
//    2 #include "iocc2530.h"

        ASEGN SFR_AN:DATA:NOROOT,090H
// union <unnamed> volatile __sfr _A_P1
_A_P1:
        DATA8
        DS 1

        ASEGN SFR_AN:DATA:NOROOT,0f4H
// unsigned char volatile __sfr P1SEL
P1SEL:
        DATA8
        DS 1

        ASEGN SFR_AN:DATA:NOROOT,0feH
// unsigned char volatile __sfr P1DIR
P1DIR:
        DATA8
        DS 1
//    3 #include "hal_drivers.h"
//    4 #include "osal.h"
//    5 

        RSEG XDATA_I:XDATA:NOROOT(0)
//    6 static uint8 coil_state[] = {0x01, 0x03, 0x02, 0x06, 0x04,0x0c, 0x08, 0x09};
coil_state:
        DATA8
        DS 8
        REQUIRE `?<Initializer for coil_state>`
        REQUIRE __INIT_XDATA_I

        RSEG XDATA_Z:XDATA:NOROOT(0)
        DATA16
//    7 static uint16 target_steps = 0; //需要步进的步数,如果为0，表示一直转动下去
target_steps:
        DS 2
        REQUIRE __INIT_XDATA_Z

        RSEG XDATA_Z:XDATA:NOROOT(0)
        DATA16
//    8 static uint16 stepped_steps = 0;  //已步进的步数
stepped_steps:
        DS 2
        REQUIRE __INIT_XDATA_Z

        RSEG XDATA_Z:XDATA:NOROOT(0)
        DATA8
//    9 static uint8 stepping_direction = ANTI_CLOCK;  // 步进方向
stepping_direction:
        DS 1
        REQUIRE __INIT_XDATA_Z

        RSEG XDATA_Z:XDATA:NOROOT(0)
        DATA8
//   10 static uint8 stepping_mode = STEP_MOTOR_NORMAL_MODE;
stepping_mode:
        DS 1
        REQUIRE __INIT_XDATA_Z

        RSEG XDATA_Z:XDATA:NOROOT(0)
        DATA8
//   11 static uint8 curRoute = 0; //在来回工作模式下当前路径
curRoute:
        DS 1
        REQUIRE __INIT_XDATA_Z
//   12 

        RSEG XDATA_I:XDATA:NOROOT(0)
//   13 STEP_MOTOR_ROUND_TRIP_ROOT_t route_trip_rout = {3,{ANTI_CLOCK, CLOCK_WISE,ANTI_CLOCK},{200,400,200}};
route_trip_rout:
        DATA8
        DS 10
        REQUIRE `?<Initializer for route_trip_rout>`
        REQUIRE __INIT_XDATA_I
//   14 
//   15 static void move_to_next_step( void );
//   16 

        RSEG BANKED_CODE:CODE:NOROOT(0)
//   17 void hal_step_motor_init( void )
hal_step_motor_init:
        CFI Block cfiBlock0 Using cfiCommon0
        CFI Function hal_step_motor_init
        CODE
//   18 {
        ; Saved register size: 0
        ; Auto size: 0
//   19   P1SEL &= 0x0f; 
        ANL     0xf4,#0xf
//   20   P1DIR |= 0x0f0;  
        ORL     0xfe,#0xf0
//   21   P1 = (P1 & 0x0f ); //绕组断电  
        ANL     0x90,#0xf
//   22 }
        LJMP    ?BRET
        CFI EndBlock cfiBlock0
        REQUIRE P1SEL
        REQUIRE P1DIR
        REQUIRE _A_P1
//   23 

        RSEG BANKED_CODE:CODE:NOROOT(0)
//   24 void hal_step_motor_start( uint8 direction, uint16 steps, uint16 speed )
hal_step_motor_start:
        CFI Block cfiBlock1 Using cfiCommon0
        CFI Function hal_step_motor_start
        CODE
//   25 {
        FUNCALL hal_step_motor_start, osal_start_reload_timer
        LOCFRAME ISTACK, 0, STACK
        LOCFRAME PSTACK, 0, STACK
        LOCFRAME XSTACK, 9, STACK
        LOCFRAME IOVERLAY, 0, STATIC
        LOCFRAME DOVERLAY, 0, STATIC
        ARGFRAME ISTACK, 0, STACK
        ARGFRAME PSTACK, 0, STACK
        ARGFRAME XSTACK, 9, STACK
        ARGFRAME IOVERLAY, 0, STATIC
        ARGFRAME DOVERLAY, 0, STATIC
        MOV     A,#-0x9
        LCALL   ?BANKED_ENTER_XDATA
        CFI DPH0 load(1, XDATA, add(CFA_XSP16, literal(-1)))
        CFI DPL0 load(1, XDATA, add(CFA_XSP16, literal(-2)))
        CFI ?BRET_EXT load(1, XDATA, add(CFA_XSP16, literal(-3)))
        CFI ?RET_HIGH load(1, XDATA, add(CFA_XSP16, literal(-4)))
        CFI ?RET_LOW load(1, XDATA, add(CFA_XSP16, literal(-5)))
        CFI R7 load(1, XDATA, add(CFA_XSP16, literal(-6)))
        CFI V0 load(1, XDATA, add(CFA_XSP16, literal(-7)))
        CFI VB load(1, XDATA, add(CFA_XSP16, literal(-8)))
        CFI R6 load(1, XDATA, add(CFA_XSP16, literal(-9)))
        CFI CFA_SP SP+0
        CFI CFA_XSP16 add(XSP16, 9)
        ; Saved register size: 9
        ; Auto size: 0
        MOV     A,R1
//   26   stepping_direction = direction;
        MOV     DPTR,#stepping_direction
        MOVX    @DPTR,A
//   27   target_steps = steps;  
        MOV     DPTR,#target_steps
        MOV     A,R2
        MOVX    @DPTR,A
        INC     DPTR
        MOV     A,R3
        LCALL   ?Subroutine2 & 0xFFFF
//   28   stepped_steps = 0;
//   29   stepping_mode = STEP_MOTOR_NORMAL_MODE;
??CrossCallReturnLabel_2:
        MOV     DPTR,#stepping_mode
        MOVX    @DPTR,A
//   30   osal_start_reload_timer( Hal_TaskID, HAL_STEP_MOTOR_EVT,speed );
        ; Setup parameters for call to function osal_start_reload_timer
        MOV     R2,#0x10
        MOV     R3,A
        MOV     DPTR,#Hal_TaskID
        MOVX    A,@DPTR
        MOV     R1,A
        LCALL   ??osal_start_reload_timer?relay
//   31 }
        MOV     R7,#0x1
        LJMP    ?BANKED_LEAVE_XDATA
        CFI EndBlock cfiBlock1

        RSEG BANKED_CODE:CODE:NOROOT(0)
//   32 void hal_step_motor_round_trip(  uint16 speed )
hal_step_motor_round_trip:
        CFI Block cfiBlock2 Using cfiCommon0
        CFI Function hal_step_motor_round_trip
        CODE
//   33 {
        FUNCALL hal_step_motor_round_trip, osal_start_reload_timer
        LOCFRAME ISTACK, 2, STACK
        LOCFRAME PSTACK, 0, STACK
        LOCFRAME XSTACK, 0, STACK
        LOCFRAME IOVERLAY, 0, STATIC
        LOCFRAME DOVERLAY, 0, STATIC
        ARGFRAME ISTACK, 2, STACK
        ARGFRAME PSTACK, 0, STACK
        ARGFRAME XSTACK, 0, STACK
        ARGFRAME IOVERLAY, 0, STATIC
        ARGFRAME DOVERLAY, 0, STATIC
        PUSH    DPL
        CFI DPL0 Frame(CFA_SP, 4)
        CFI CFA_SP SP+-4
        PUSH    DPH
        CFI DPH0 Frame(CFA_SP, 5)
        CFI CFA_SP SP+-5
        ; Saved register size: 2
        ; Auto size: 0
//   34   stepping_mode = STEP_MOTOR_ROUND_TRIP_MODE;
        MOV     DPTR,#stepping_mode
        MOV     A,#0x1
        MOVX    @DPTR,A
//   35   curRoute = 0;
        MOV     DPTR,#curRoute
        CLR     A
        MOVX    @DPTR,A
//   36   stepped_steps = 0;
        MOV     DPTR,#stepped_steps
        MOVX    @DPTR,A
        INC     DPTR
        MOVX    @DPTR,A
//   37   target_steps = route_trip_rout.steps[ curRoute ];
        MOV     DPTR,#route_trip_rout + 4
        LCALL   ?Subroutine1 & 0xFFFF
//   38   stepping_direction = route_trip_rout.dir[ curRoute ]; 
??CrossCallReturnLabel_0:
        MOV     DPTR,#route_trip_rout + 1
        MOVX    A,@DPTR
        MOV     DPTR,#stepping_direction
        MOVX    @DPTR,A
//   39   osal_start_reload_timer( Hal_TaskID, HAL_STEP_MOTOR_EVT,speed );
        ; Setup parameters for call to function osal_start_reload_timer
        MOV     A,R2
        MOV     R4,A
        MOV     A,R3
        MOV     R5,A
        MOV     R2,#0x10
        MOV     R3,#0x0
        MOV     DPTR,#Hal_TaskID
        MOVX    A,@DPTR
        MOV     R1,A
        LCALL   ??osal_start_reload_timer?relay
        CFI EndBlock cfiBlock2
//   40 }
        REQUIRE ?Subroutine0
        ; // Fall through to label ?Subroutine0

        RSEG BANKED_CODE:CODE:NOROOT(0)
?Subroutine0:
        CFI Block cfiBlock3 Using cfiCommon0
        CFI NoFunction
        CFI CFA_SP SP+-5
        CFI DPL0 Frame(CFA_SP, 4)
        CFI DPH0 Frame(CFA_SP, 5)
        POP     DPH
        CFI CFA_SP SP+-4
        CFI DPH0 SameValue
        POP     DPL
        CFI CFA_SP SP+-3
        CFI DPL0 SameValue
        LJMP    ?BRET
        CFI EndBlock cfiBlock3

        RSEG BANKED_CODE:CODE:NOROOT(0)
//   41 void hal_step_motor_stop( void )
hal_step_motor_stop:
        CFI Block cfiBlock4 Using cfiCommon0
        CFI Function hal_step_motor_stop
        CODE
//   42 {
        FUNCALL hal_step_motor_stop, osal_stop_timerEx
        LOCFRAME ISTACK, 2, STACK
        LOCFRAME PSTACK, 0, STACK
        LOCFRAME XSTACK, 0, STACK
        LOCFRAME IOVERLAY, 0, STATIC
        LOCFRAME DOVERLAY, 0, STATIC
        ARGFRAME ISTACK, 2, STACK
        ARGFRAME PSTACK, 0, STACK
        ARGFRAME XSTACK, 0, STACK
        ARGFRAME IOVERLAY, 0, STATIC
        ARGFRAME DOVERLAY, 0, STATIC
        PUSH    DPL
        CFI DPL0 Frame(CFA_SP, 4)
        CFI CFA_SP SP+-4
        PUSH    DPH
        CFI DPH0 Frame(CFA_SP, 5)
        CFI CFA_SP SP+-5
        ; Saved register size: 2
        ; Auto size: 0
//   43   osal_stop_timerEx(Hal_TaskID, HAL_STEP_MOTOR_EVT);
        ; Setup parameters for call to function osal_stop_timerEx
        MOV     R2,#0x10
        MOV     R3,#0x0
        MOV     DPTR,#Hal_TaskID
        MOVX    A,@DPTR
        MOV     R1,A
        LCALL   ??osal_stop_timerEx?relay
//   44 }
        SJMP    ?Subroutine0
        CFI EndBlock cfiBlock4
//   45 

        RSEG BANKED_CODE:CODE:NOROOT(0)
//   46 void hal_step_motor_drive( void )
hal_step_motor_drive:
        CFI Block cfiBlock5 Using cfiCommon0
        CFI Function hal_step_motor_drive
        CODE
//   47 {
        FUNCALL hal_step_motor_drive, osal_stop_timerEx
        LOCFRAME ISTACK, 2, STACK
        LOCFRAME PSTACK, 0, STACK
        LOCFRAME XSTACK, 0, STACK
        LOCFRAME IOVERLAY, 0, STATIC
        LOCFRAME DOVERLAY, 0, STATIC
        ARGFRAME ISTACK, 2, STACK
        ARGFRAME PSTACK, 0, STACK
        ARGFRAME XSTACK, 0, STACK
        ARGFRAME IOVERLAY, 0, STATIC
        ARGFRAME DOVERLAY, 0, STATIC
        FUNCALL hal_step_motor_drive, osal_stop_timerEx
        LOCFRAME ISTACK, 2, STACK
        LOCFRAME PSTACK, 0, STACK
        LOCFRAME XSTACK, 0, STACK
        LOCFRAME IOVERLAY, 0, STATIC
        LOCFRAME DOVERLAY, 0, STATIC
        ARGFRAME ISTACK, 2, STACK
        ARGFRAME PSTACK, 0, STACK
        ARGFRAME XSTACK, 0, STACK
        ARGFRAME IOVERLAY, 0, STATIC
        ARGFRAME DOVERLAY, 0, STATIC
        FUNCALL hal_step_motor_drive, osal_set_event
        LOCFRAME ISTACK, 2, STACK
        LOCFRAME PSTACK, 0, STACK
        LOCFRAME XSTACK, 0, STACK
        LOCFRAME IOVERLAY, 0, STATIC
        LOCFRAME DOVERLAY, 0, STATIC
        ARGFRAME ISTACK, 2, STACK
        ARGFRAME PSTACK, 0, STACK
        ARGFRAME XSTACK, 0, STACK
        ARGFRAME IOVERLAY, 0, STATIC
        ARGFRAME DOVERLAY, 0, STATIC
        PUSH    DPL
        CFI DPL0 Frame(CFA_SP, 4)
        CFI CFA_SP SP+-4
        PUSH    DPH
        CFI DPH0 Frame(CFA_SP, 5)
        CFI CFA_SP SP+-5
        ; Saved register size: 2
        ; Auto size: 0
//   48  
//   49   switch( stepping_mode )
        MOV     DPTR,#stepping_mode
        MOVX    A,@DPTR
        JZ      ??hal_step_motor_drive_0
        DEC     A
        JZ      ??hal_step_motor_drive_1
        SJMP    ??hal_step_motor_drive_2
//   50   {
//   51   case STEP_MOTOR_NORMAL_MODE:
//   52     if( 0 == target_steps ) 
??hal_step_motor_drive_0:
        MOV     DPTR,#target_steps
        MOVX    A,@DPTR
        MOV     R0,A
        INC     DPTR
        MOVX    A,@DPTR
        MOV     R1,A
        MOV     A,R0
        ORL     A,R1
        JZ      ??hal_step_motor_drive_2
//   53     {//target_steps == 0，则一直转动
//   54       break;
//   55     }
//   56     if( stepped_steps < target_steps )
        MOV     DPTR,#stepped_steps
        CLR     C
        MOVX    A,@DPTR
        SUBB    A,R0
        INC     DPTR
        MOVX    A,@DPTR
        SUBB    A,R1
        JNC     ??hal_step_motor_drive_3
//   57     {//还没有走完目标步数，则继续走
//   58       stepped_steps++;
??hal_step_motor_drive_4:
        MOV     DPTR,#stepped_steps
        MOVX    A,@DPTR
        ADD     A,#0x1
        MOVX    @DPTR,A
        INC     DPTR
        MOVX    A,@DPTR
        ADDC    A,#0x0
??hal_step_motor_drive_5:
        MOVX    @DPTR,A
//   59       break;
//   60     }
//   61     //走完所有步数，则停止步进
//   62     osal_stop_timerEx(Hal_TaskID, HAL_STEP_MOTOR_EVT); // 停止步进
//   63      P1 = (P1 & 0x0f ); //绕组断电  
//   64     return;
//   65   case STEP_MOTOR_ROUND_TRIP_MODE:
//   66     if( stepped_steps < target_steps )
//   67     {//还没有走完目标步数，则继续走
//   68       stepped_steps++;
//   69       break;
//   70     }
//   71     if( curRoute < route_trip_rout.roudCount )
//   72     {// 还没有走完所有路径，则断续下一条
//   73       curRoute++;
//   74       stepped_steps = 0;
//   75       target_steps = route_trip_rout.steps[ curRoute ];
//   76       stepping_direction = route_trip_rout.dir[ curRoute ];
//   77       break;
//   78     }
//   79     // 走完所有路径
//   80     osal_stop_timerEx(Hal_TaskID, HAL_STEP_MOTOR_EVT); // 停止步进
//   81     P1 = (P1 & 0x0f ); //绕组断电  
//   82     osal_set_event(Hal_TaskID,HAL_STEP_MOTOR_ROUND_TRIP_FINISH_EVT); //通知驱动层已走完   
//   83     return;    
//   84   }
//   85   // 步进
//   86   move_to_next_step();  
??hal_step_motor_drive_2:
        MOV     DPTR,#stepping_direction
        MOVX    A,@DPTR
        MOV     DPTR,#??curState
        JNZ     ??hal_step_motor_drive_6
        MOVX    A,@DPTR
        INC     A
        MOVX    @DPTR,A
        CLR     C
        SUBB    A,#0x8
        MOV     C,0xD0 /* PSW */.2
        XRL     A,PSW
        RLC     A
        JC      ??hal_step_motor_drive_7
        CLR     A
        SJMP    ??hal_step_motor_drive_8
??hal_step_motor_drive_3:
        ; Setup parameters for call to function osal_stop_timerEx
        LCALL   ?Subroutine3 & 0xFFFF
??CrossCallReturnLabel_4:
        LJMP    ??hal_step_motor_drive_9 & 0xFFFF
??hal_step_motor_drive_1:
        MOV     DPTR,#stepped_steps
        PUSH    DPL
        CFI CFA_SP SP+-6
        MOV     DPTR,#target_steps
        MOVX    A,@DPTR
        MOV     R0,A
        INC     DPTR
        MOVX    A,@DPTR
        MOV     R1,A
        MOV     DPH,#(stepped_steps >> 8) & 0xff
        POP     DPL
        CFI CFA_SP SP+-5
        CLR     C
        MOVX    A,@DPTR
        SUBB    A,R0
        INC     DPTR
        MOVX    A,@DPTR
        SUBB    A,R1
        JC      ??hal_step_motor_drive_4
        MOV     DPTR,#route_trip_rout
        MOVX    A,@DPTR
        MOV     R0,A
        MOV     DPTR,#curRoute
        MOVX    A,@DPTR
        CLR     C
        SUBB    A,R0
        JNC     ??hal_step_motor_drive_10
        MOVX    A,@DPTR
        INC     A
        LCALL   ?Subroutine2 & 0xFFFF
??CrossCallReturnLabel_3:
        MOV     DPTR,#curRoute
        MOVX    A,@DPTR
        MOV     R2,A
        CLR     C
        RLC     A
        MOV     R0,A
        CLR     A
        RLC     A
        MOV     R1,A
        MOV     A,#(route_trip_rout + 4) & 0xff
        ADD     A,R0
        MOV     DPL,A
        MOV     A,#((route_trip_rout + 4) >> 8) & 0xff
        ADDC    A,R1
        MOV     DPH,A
        LCALL   ?Subroutine1 & 0xFFFF
??CrossCallReturnLabel_1:
        MOV     A,#(route_trip_rout + 1) & 0xff
        ADD     A,R2
        MOV     DPL,A
        MOV     A,#((route_trip_rout + 1) >> 8) & 0xff
        ADDC    A,#0x0
        MOV     DPH,A
        MOVX    A,@DPTR
        MOV     DPTR,#stepping_direction
        SJMP    ??hal_step_motor_drive_5
??hal_step_motor_drive_10:
        ; Setup parameters for call to function osal_stop_timerEx
        LCALL   ?Subroutine3 & 0xFFFF
??CrossCallReturnLabel_5:
        ; Setup parameters for call to function osal_set_event
        MOV     R2,#0x20
        MOV     R3,#0x0
        MOV     DPTR,#Hal_TaskID
        MOVX    A,@DPTR
        MOV     R1,A
        LCALL   ??osal_set_event?relay
        SJMP    ??hal_step_motor_drive_9
??hal_step_motor_drive_6:
        MOVX    A,@DPTR
        DEC     A
        MOVX    @DPTR,A
        CLR     C
        SUBB    A,#0x0
        MOV     C,0xD0 /* PSW */.2
        XRL     A,PSW
        RLC     A
        JNC     ??hal_step_motor_drive_7
        MOV     A,#0x7
??hal_step_motor_drive_8:
        MOVX    @DPTR,A
??hal_step_motor_drive_7:
        MOVX    A,@DPTR
        MOV     R0,A
        RLC     A
        SUBB    A,0xE0 /* A   */
        MOV     R1,A
        MOV     A,#coil_state & 0xff
        ADD     A,R0
        MOV     DPL,A
        MOV     A,#(coil_state >> 8) & 0xff
        ADDC    A,R1
        MOV     DPH,A
        MOVX    A,@DPTR
        SWAP    A
        ANL     A,#0xf0
        MOV     R0,A
        MOV     A,0x90
        ANL     A,#0xf
        ORL     A,R0
        MOV     0x90,A
//   87 }
??hal_step_motor_drive_9:
        LJMP    ?Subroutine0 & 0xFFFF
        CFI EndBlock cfiBlock5
        REQUIRE _A_P1

        RSEG BANKED_CODE:CODE:NOROOT(0)
?Subroutine3:
        CFI Block cfiCond6 Using cfiCommon0
        CFI NoFunction
        CFI Conditional ??CrossCallReturnLabel_4
        CFI DPL0 Frame(CFA_SP, 4)
        CFI DPH0 Frame(CFA_SP, 5)
        CFI CFA_SP SP+-5
        CFI Block cfiCond7 Using cfiCommon0
        CFI (cfiCond7) NoFunction
        CFI (cfiCond7) Conditional ??CrossCallReturnLabel_5
        CFI (cfiCond7) DPL0 Frame(CFA_SP, 4)
        CFI (cfiCond7) DPH0 Frame(CFA_SP, 5)
        CFI (cfiCond7) CFA_SP SP+-5
        CFI Block cfiPicker8 Using cfiCommon1
        CFI (cfiPicker8) NoFunction
        CFI (cfiPicker8) Picker
        MOV     R2,#0x10
        MOV     R3,#0x0
        MOV     DPTR,#Hal_TaskID
        MOVX    A,@DPTR
        MOV     R1,A
        LCALL   ??osal_stop_timerEx?relay
        ANL     0x90,#0xf
        RET
        CFI EndBlock cfiCond6
        CFI EndBlock cfiCond7
        CFI EndBlock cfiPicker8

        RSEG BANKED_CODE:CODE:NOROOT(0)
?Subroutine2:
        CFI Block cfiCond9 Using cfiCommon0
        CFI NoFunction
        CFI Conditional ??CrossCallReturnLabel_2
        CFI R6 load(1, XDATA, add(CFA_XSP16, literal(-9)))
        CFI VB load(1, XDATA, add(CFA_XSP16, literal(-8)))
        CFI V0 load(1, XDATA, add(CFA_XSP16, literal(-7)))
        CFI R7 load(1, XDATA, add(CFA_XSP16, literal(-6)))
        CFI ?RET_LOW load(1, XDATA, add(CFA_XSP16, literal(-5)))
        CFI ?RET_HIGH load(1, XDATA, add(CFA_XSP16, literal(-4)))
        CFI ?BRET_EXT load(1, XDATA, add(CFA_XSP16, literal(-3)))
        CFI DPL0 load(1, XDATA, add(CFA_XSP16, literal(-2)))
        CFI DPH0 load(1, XDATA, add(CFA_XSP16, literal(-1)))
        CFI CFA_SP SP+0
        CFI CFA_XSP16 add(XSP16, 9)
        CFI Block cfiCond10 Using cfiCommon0
        CFI (cfiCond10) NoFunction
        CFI (cfiCond10) Conditional ??CrossCallReturnLabel_3
        CFI (cfiCond10) DPL0 Frame(CFA_SP, 4)
        CFI (cfiCond10) DPH0 Frame(CFA_SP, 5)
        CFI (cfiCond10) CFA_SP SP+-5
        CFI Block cfiPicker11 Using cfiCommon1
        CFI (cfiPicker11) NoFunction
        CFI (cfiPicker11) Picker
        MOVX    @DPTR,A
        MOV     DPTR,#stepped_steps
        CLR     A
        MOVX    @DPTR,A
        INC     DPTR
        MOVX    @DPTR,A
        RET
        CFI EndBlock cfiCond9
        CFI EndBlock cfiCond10
        CFI EndBlock cfiPicker11

        RSEG BANKED_CODE:CODE:NOROOT(0)
?Subroutine1:
        CFI Block cfiCond12 Using cfiCommon0
        CFI NoFunction
        CFI Conditional ??CrossCallReturnLabel_0
        CFI DPL0 Frame(CFA_SP, 4)
        CFI DPH0 Frame(CFA_SP, 5)
        CFI CFA_SP SP+-5
        CFI Block cfiCond13 Using cfiCommon0
        CFI (cfiCond13) NoFunction
        CFI (cfiCond13) Conditional ??CrossCallReturnLabel_1
        CFI (cfiCond13) DPL0 Frame(CFA_SP, 4)
        CFI (cfiCond13) DPH0 Frame(CFA_SP, 5)
        CFI (cfiCond13) CFA_SP SP+-5
        CFI Block cfiPicker14 Using cfiCommon1
        CFI (cfiPicker14) NoFunction
        CFI (cfiPicker14) Picker
        MOVX    A,@DPTR
        MOV     R0,A
        INC     DPTR
        MOVX    A,@DPTR
        MOV     R1,A
        MOV     DPTR,#target_steps
        MOV     A,R0
        MOVX    @DPTR,A
        INC     DPTR
        MOV     A,R1
        MOVX    @DPTR,A
        RET
        CFI EndBlock cfiCond12
        CFI EndBlock cfiCond13
        CFI EndBlock cfiPicker14
//   88 
//   89 static void move_to_next_step( void )
//   90 {

        RSEG XDATA_Z:XDATA:NOROOT(0)
        DATA8
//   91   static int8 curState = 0; // 当前绕组通电状态  
??curState:
        DS 1
        REQUIRE __INIT_XDATA_Z

        RSEG XDATA_ID:CODE:NOROOT(0)
`?<Initializer for coil_state>`:
        DATA8
        DB 1
        DB 3
        DB 2
        DB 6
        DB 4
        DB 12
        DB 8
        DB 9

        RSEG XDATA_ID:CODE:NOROOT(0)
`?<Initializer for route_trip_rout>`:
        DATA8
        DB 3
        DB 0
        DB 1
        DB 0
        DATA16
        DW 200
        DW 400
        DW 200

        RSEG BANK_RELAYS:CODE:REORDER:NOROOT(0)
??hal_step_motor_init?relay:
        LCALL   ?BDISPATCH
        DATA
        DC24    hal_step_motor_init

        RSEG BANK_RELAYS:CODE:REORDER:NOROOT(0)
??hal_step_motor_start?relay:
        LCALL   ?BDISPATCH
        DATA
        DC24    hal_step_motor_start

        RSEG BANK_RELAYS:CODE:REORDER:NOROOT(0)
??hal_step_motor_round_trip?relay:
        LCALL   ?BDISPATCH
        DATA
        DC24    hal_step_motor_round_trip

        RSEG BANK_RELAYS:CODE:REORDER:NOROOT(0)
??hal_step_motor_stop?relay:
        LCALL   ?BDISPATCH
        DATA
        DC24    hal_step_motor_stop

        RSEG BANK_RELAYS:CODE:REORDER:NOROOT(0)
??hal_step_motor_drive?relay:
        LCALL   ?BDISPATCH
        DATA
        DC24    hal_step_motor_drive

        END
//   92   if( ANTI_CLOCK == stepping_direction )
//   93   {
//   94     curState++;
//   95     curState = (curState > 7)? 0: curState;
//   96   }
//   97   else
//   98   {
//   99     curState--;
//  100     curState = ( curState < 0)? 7: curState;
//  101   }
//  102   P1 = (P1 & 0x0f ) | ( coil_state[curState] << 4 );  
//  103 }
// 
// 397 bytes in segment BANKED_CODE
//  30 bytes in segment BANK_RELAYS
//   3 bytes in segment SFR_AN
//  18 bytes in segment XDATA_I
//  18 bytes in segment XDATA_ID
//   8 bytes in segment XDATA_Z
// 
// 445 bytes of CODE  memory
//   0 bytes of DATA  memory (+ 3 bytes shared)
//  26 bytes of XDATA memory
//
//Errors: none
//Warnings: none
