///////////////////////////////////////////////////////////////////////////////
//                                                                            /
// IAR C/C++ Compiler V8.10.3.10338/W32 for 8051        13/Nov/2017  07:21:01 /
// Copyright 2004-2011 IAR Systems AB.                                        /
//                                                                            /
//    Core               =  plain                                             /
//    Code model         =  banked                                            /
//    Data model         =  large                                             /
//    Calling convention =  xdata reentrant                                   /
//    Constant location  =  data_rom                                          /
//    Dptr setup         =  1,16                                              /
//    Source file        =  D:\FileInstall\ZStack-CC2530-2.5.1a_GreenRoom\Pro /
//                          jects\zstack\Samples\GreenClassroom_NetWork\Sourc /
//                          e\MyApp.c                                         /
//    Command line       =  -f D:\FileInstall\ZStack-CC2530-2.5.1a_GreenRoom\ /
//                          Projects\zstack\Samples\GreenClassroom_NetWork\CC /
//                          2530DB\..\..\..\Tools\CC2530DB\f8wCoord.cfg       /
//                          (-DCPU32MHZ -DROOT=__near_func                    /
//                          -DMAC_CFG_APP_PENDING_QUEUE=TRUE                  /
//                          -DMAC_CFG_TX_DATA_MAX=5 -DMAC_CFG_TX_MAX=8        /
//                          -DMAC_CFG_RX_MAX=5 -DZDO_COORDINATOR -DRTR_NWK)   /
//                          -f D:\FileInstall\ZStack-CC2530-2.5.1a_GreenRoom\ /
//                          Projects\zstack\Samples\GreenClassroom_NetWork\CC /
//                          2530DB\..\..\..\Tools\CC2530DB\f8wConfig.cfg      /
//                          (-DZIGBEEPRO -DSECURE=0 -DZG_SECURE_DYNAMIC=0     /
//                          -DREFLECTOR -DDEFAULT_CHANLIST=0x00000800         /
//                          -DZDAPP_CONFIG_PAN_ID=0xFFFF                      /
//                          -DNWK_START_DELAY=100 -DEXTENDED_JOINING_RANDOM_M /
//                          ASK=0x007F -DBEACON_REQUEST_DELAY=100             /
//                          -DBEACON_REQ_DELAY_MASK=0x00FF                    /
//                          -DLINK_STATUS_JITTER_MASK=0x007F                  /
//                          -DROUTE_EXPIRY_TIME=30 -DAPSC_ACK_WAIT_DURATION_P /
//                          OLLED=3000 -DNWK_INDIRECT_MSG_TIMEOUT=7           /
//                          -DMAX_RREQ_ENTRIES=8 -DAPSC_MAX_FRAME_RETRIES=3   /
//                          -DNWK_MAX_DATA_RETRIES=2                          /
//                          -DMAX_POLL_FAILURE_RETRIES=2 -DMAX_BCAST=9        /
//                          -DAPS_MAX_GROUPS=16 -DMAX_RTG_ENTRIES=40          /
//                          -DNWK_MAX_BINDING_ENTRIES=4                       /
//                          -DMAX_BINDING_CLUSTER_IDS=4                       /
//                          "-DDEFAULT_KEY={0x01, 0x03, 0x05, 0x07, 0x09,     /
//                          0x0B, 0x0D, 0x0F, 0x00, 0x02, 0x04, 0x06, 0x08,   /
//                          0x0A, 0x0C, 0x0D}" -DMAC_MAX_FRAME_SIZE=116       /
//                          -DZDNWKMGR_MIN_TRANSMISSIONS=20 "-DCONST=const    /
//                          __code" -DGENERIC=__generic                       /
//                          -DRFD_RCVC_ALWAYS_ON=FALSE -DPOLL_RATE=1000       /
//                          -DQUEUED_POLL_RATE=100 -DRESPONSE_POLL_RATE=100)  /
//                          -DREJOIN_POLL_RATE=440 D:\FileInstall\ZStack-CC25 /
//                          30-2.5.1a_GreenRoom\Projects\zstack\Samples\Green /
//                          Classroom_NetWork\Source\MyApp.c -D ZTOOL_P1 -D   /
//                          MT_TASK -D MT_SYS_FUNC -D MT_ZDO_FUNC -D          /
//                          LCD_SUPPORTED=DEBUG -lC                           /
//                          D:\FileInstall\ZStack-CC2530-2.5.1a_GreenRoom\Pro /
//                          jects\zstack\Samples\GreenClassroom_NetWork\CC253 /
//                          0DB\CoordinatorEB\List\ -lA                       /
//                          D:\FileInstall\ZStack-CC2530-2.5.1a_GreenRoom\Pro /
//                          jects\zstack\Samples\GreenClassroom_NetWork\CC253 /
//                          0DB\CoordinatorEB\List\ --diag_suppress           /
//                          Pe001,Pa010 -o D:\FileInstall\ZStack-CC2530-2.5.1 /
//                          a_GreenRoom\Projects\zstack\Samples\GreenClassroo /
//                          m_NetWork\CC2530DB\CoordinatorEB\Obj\ -e          /
//                          --no_code_motion --debug --core=plain             /
//                          --dptr=16,1 --data_model=large                    /
//                          --code_model=banked --calling_convention=xdata_re /
//                          entrant --place_constants=data_rom                /
//                          --nr_virtual_regs 16 -I                           /
//                          D:\FileInstall\ZStack-CC2530-2.5.1a_GreenRoom\Pro /
//                          jects\zstack\Samples\GreenClassroom_NetWork\CC253 /
//                          0DB\ -I D:\FileInstall\ZStack-CC2530-2.5.1a_Green /
//                          Room\Projects\zstack\Samples\GreenClassroom_NetWo /
//                          rk\CC2530DB\..\Source\ -I                         /
//                          D:\FileInstall\ZStack-CC2530-2.5.1a_GreenRoom\Pro /
//                          jects\zstack\Samples\GreenClassroom_NetWork\CC253 /
//                          0DB\..\..\..\ZMain\TI2530DB\ -I                   /
//                          D:\FileInstall\ZStack-CC2530-2.5.1a_GreenRoom\Pro /
//                          jects\zstack\Samples\GreenClassroom_NetWork\CC253 /
//                          0DB\..\..\..\..\..\Components\hal\include\ -I     /
//                          D:\FileInstall\ZStack-CC2530-2.5.1a_GreenRoom\Pro /
//                          jects\zstack\Samples\GreenClassroom_NetWork\CC253 /
//                          0DB\..\..\..\..\..\Components\hal\target\CC2530EB /
//                          \ -I D:\FileInstall\ZStack-CC2530-2.5.1a_GreenRoo /
//                          m\Projects\zstack\Samples\GreenClassroom_NetWork\ /
//                          CC2530DB\..\..\..\..\..\Components\mac\include\   /
//                          -I D:\FileInstall\ZStack-CC2530-2.5.1a_GreenRoom\ /
//                          Projects\zstack\Samples\GreenClassroom_NetWork\CC /
//                          2530DB\..\..\..\..\..\Components\mac\high_level\  /
//                          -I D:\FileInstall\ZStack-CC2530-2.5.1a_GreenRoom\ /
//                          Projects\zstack\Samples\GreenClassroom_NetWork\CC /
//                          2530DB\..\..\..\..\..\Components\mac\low_level\sr /
//                          f04\ -I D:\FileInstall\ZStack-CC2530-2.5.1a_Green /
//                          Room\Projects\zstack\Samples\GreenClassroom_NetWo /
//                          rk\CC2530DB\..\..\..\..\..\Components\mac\low_lev /
//                          el\srf04\single_chip\ -I                          /
//                          D:\FileInstall\ZStack-CC2530-2.5.1a_GreenRoom\Pro /
//                          jects\zstack\Samples\GreenClassroom_NetWork\CC253 /
//                          0DB\..\..\..\..\..\Components\mt\ -I              /
//                          D:\FileInstall\ZStack-CC2530-2.5.1a_GreenRoom\Pro /
//                          jects\zstack\Samples\GreenClassroom_NetWork\CC253 /
//                          0DB\..\..\..\..\..\Components\osal\include\ -I    /
//                          D:\FileInstall\ZStack-CC2530-2.5.1a_GreenRoom\Pro /
//                          jects\zstack\Samples\GreenClassroom_NetWork\CC253 /
//                          0DB\..\..\..\..\..\Components\services\saddr\ -I  /
//                          D:\FileInstall\ZStack-CC2530-2.5.1a_GreenRoom\Pro /
//                          jects\zstack\Samples\GreenClassroom_NetWork\CC253 /
//                          0DB\..\..\..\..\..\Components\services\sdata\ -I  /
//                          D:\FileInstall\ZStack-CC2530-2.5.1a_GreenRoom\Pro /
//                          jects\zstack\Samples\GreenClassroom_NetWork\CC253 /
//                          0DB\..\..\..\..\..\Components\stack\af\ -I        /
//                          D:\FileInstall\ZStack-CC2530-2.5.1a_GreenRoom\Pro /
//                          jects\zstack\Samples\GreenClassroom_NetWork\CC253 /
//                          0DB\..\..\..\..\..\Components\stack\nwk\ -I       /
//                          D:\FileInstall\ZStack-CC2530-2.5.1a_GreenRoom\Pro /
//                          jects\zstack\Samples\GreenClassroom_NetWork\CC253 /
//                          0DB\..\..\..\..\..\Components\stack\sapi\ -I      /
//                          D:\FileInstall\ZStack-CC2530-2.5.1a_GreenRoom\Pro /
//                          jects\zstack\Samples\GreenClassroom_NetWork\CC253 /
//                          0DB\..\..\..\..\..\Components\stack\sec\ -I       /
//                          D:\FileInstall\ZStack-CC2530-2.5.1a_GreenRoom\Pro /
//                          jects\zstack\Samples\GreenClassroom_NetWork\CC253 /
//                          0DB\..\..\..\..\..\Components\stack\sys\ -I       /
//                          D:\FileInstall\ZStack-CC2530-2.5.1a_GreenRoom\Pro /
//                          jects\zstack\Samples\GreenClassroom_NetWork\CC253 /
//                          0DB\..\..\..\..\..\Components\stack\zdo\ -I       /
//                          D:\FileInstall\ZStack-CC2530-2.5.1a_GreenRoom\Pro /
//                          jects\zstack\Samples\GreenClassroom_NetWork\CC253 /
//                          0DB\..\..\..\..\..\Components\zmac\ -I            /
//                          D:\FileInstall\ZStack-CC2530-2.5.1a_GreenRoom\Pro /
//                          jects\zstack\Samples\GreenClassroom_NetWork\CC253 /
//                          0DB\..\..\..\..\..\Components\zmac\f8w\ -Ohz      /
//                          --require_prototypes                              /
//    List file          =  D:\FileInstall\ZStack-CC2530-2.5.1a_GreenRoom\Pro /
//                          jects\zstack\Samples\GreenClassroom_NetWork\CC253 /
//                          0DB\CoordinatorEB\List\MyApp.s51                  /
//                                                                            /
//                                                                            /
///////////////////////////////////////////////////////////////////////////////

        NAME MyApp

        RTMODEL "__SystemLibrary", "CLib"
        RTMODEL "__calling_convention", "xdata_reentrant"
        RTMODEL "__code_model", "banked"
        RTMODEL "__core", "plain"
        RTMODEL "__data_model", "large"
        RTMODEL "__dptr_size", "16"
        RTMODEL "__extended_stack", "disabled"
        RTMODEL "__location_for_constants", "data"
        RTMODEL "__number_of_dptrs", "1"
        RTMODEL "__rt_version", "1"

        RSEG DOVERLAY:DATA:NOROOT(0)
        RSEG IOVERLAY:IDATA:NOROOT(0)
        RSEG ISTACK:IDATA:NOROOT(0)
        RSEG PSTACK:XDATA:NOROOT(0)
        RSEG XSTACK:XDATA:NOROOT(0)

        EXTERN ?BANKED_ENTER_XDATA
        EXTERN ?BANKED_LEAVE_XDATA
        EXTERN ?BDISPATCH
        EXTERN ?CALL_IND
        EXTERN ?V0
        EXTERN __INIT_XDATA_Z

        PUBLIC ??myApp_event_loop?relay
        FUNCTION ??myApp_event_loop?relay,0203H
        PUBLIC ??myApp_init?relay
        FUNCTION ??myApp_init?relay,0203H
        PUBLIC myApp_TaskID
        PUBLIC myApp_event_loop
        FUNCTION myApp_event_loop,021203H
        ARGFRAME XSTACK, 0, STACK
        LOCFRAME XSTACK, 10, STACK
        PUBLIC myApp_init
        FUNCTION myApp_init,0203H
        ARGFRAME XSTACK, 0, STACK
        LOCFRAME XSTACK, 9, STACK
        
        CFI Names cfiNames0
        CFI StackFrame CFA_SP SP IDATA
        CFI StackFrame CFA_PSP16 PSP16 XDATA
        CFI StackFrame CFA_XSP16 XSP16 XDATA
        CFI StaticOverlayFrame CFA_IOVERLAY IOVERLAY
        CFI StaticOverlayFrame CFA_DOVERLAY DOVERLAY
        CFI Resource `PSW.CY`:1, `B.BR0`:1, `B.BR1`:1, `B.BR2`:1, `B.BR3`:1
        CFI Resource `B.BR4`:1, `B.BR5`:1, `B.BR6`:1, `B.BR7`:1, `VB.BR8`:1
        CFI Resource `VB.BR9`:1, `VB.BR10`:1, `VB.BR11`:1, `VB.BR12`:1
        CFI Resource `VB.BR13`:1, `VB.BR14`:1, `VB.BR15`:1, VB:8, B:8, A:8
        CFI Resource PSW:8, DPL0:8, DPH0:8, R0:8, R1:8, R2:8, R3:8, R4:8, R5:8
        CFI Resource R6:8, R7:8, V0:8, V1:8, V2:8, V3:8, V4:8, V5:8, V6:8, V7:8
        CFI Resource V8:8, V9:8, V10:8, V11:8, V12:8, V13:8, V14:8, V15:8, SP:8
        CFI Resource PSPH:8, PSPL:8, PSP16:16, XSPH:8, XSPL:8, XSP16:16
        CFI VirtualResource ?RET:24
        CFI Resource ?BRET_EXT:8
        CFI VirtualResource ?RET_HIGH:8, ?RET_LOW:8
        CFI ResourceParts PSP16 PSPH, PSPL
        CFI ResourceParts XSP16 XSPH, XSPL
        CFI ResourceParts ?RET ?BRET_EXT, ?RET_HIGH, ?RET_LOW
        CFI EndNames cfiNames0
        
        CFI Common cfiCommon0 Using cfiNames0
        CFI CodeAlign 1
        CFI DataAlign -1
        CFI ReturnAddress ?RET CODE
        CFI CFA_DOVERLAY Used
        CFI CFA_IOVERLAY Used
        CFI CFA_SP SP+-3
        CFI CFA_PSP16 PSP16+0
        CFI CFA_XSP16 XSP16+0
        CFI `PSW.CY` SameValue
        CFI `B.BR0` SameValue
        CFI `B.BR1` SameValue
        CFI `B.BR2` SameValue
        CFI `B.BR3` SameValue
        CFI `B.BR4` SameValue
        CFI `B.BR5` SameValue
        CFI `B.BR6` SameValue
        CFI `B.BR7` SameValue
        CFI `VB.BR8` SameValue
        CFI `VB.BR9` SameValue
        CFI `VB.BR10` SameValue
        CFI `VB.BR11` SameValue
        CFI `VB.BR12` SameValue
        CFI `VB.BR13` SameValue
        CFI `VB.BR14` SameValue
        CFI `VB.BR15` SameValue
        CFI VB SameValue
        CFI B Undefined
        CFI A Undefined
        CFI PSW SameValue
        CFI DPL0 SameValue
        CFI DPH0 SameValue
        CFI R0 Undefined
        CFI R1 Undefined
        CFI R2 Undefined
        CFI R3 Undefined
        CFI R4 Undefined
        CFI R5 Undefined
        CFI R6 SameValue
        CFI R7 SameValue
        CFI V0 SameValue
        CFI V1 SameValue
        CFI V2 SameValue
        CFI V3 SameValue
        CFI V4 SameValue
        CFI V5 SameValue
        CFI V6 SameValue
        CFI V7 SameValue
        CFI V8 SameValue
        CFI V9 SameValue
        CFI V10 SameValue
        CFI V11 SameValue
        CFI V12 SameValue
        CFI V13 SameValue
        CFI V14 SameValue
        CFI V15 SameValue
        CFI PSPH Undefined
        CFI PSPL Undefined
        CFI XSPH Undefined
        CFI XSPL Undefined
        CFI ?RET Concat
        CFI ?BRET_EXT Frame(CFA_SP, 3)
        CFI ?RET_HIGH Frame(CFA_SP, 2)
        CFI ?RET_LOW Frame(CFA_SP, 1)
        CFI EndCommon cfiCommon0
        
        
        CFI Common cfiCommon1 Using cfiNames0
        CFI CodeAlign 1
        CFI DataAlign -1
        CFI ReturnAddress ?RET CODE
        CFI CFA_DOVERLAY Used
        CFI CFA_IOVERLAY Used
        CFI CFA_SP SP+-2
        CFI CFA_PSP16 PSP16+0
        CFI CFA_XSP16 XSP16+0
        CFI `PSW.CY` SameValue
        CFI `B.BR0` SameValue
        CFI `B.BR1` SameValue
        CFI `B.BR2` SameValue
        CFI `B.BR3` SameValue
        CFI `B.BR4` SameValue
        CFI `B.BR5` SameValue
        CFI `B.BR6` SameValue
        CFI `B.BR7` SameValue
        CFI `VB.BR8` SameValue
        CFI `VB.BR9` SameValue
        CFI `VB.BR10` SameValue
        CFI `VB.BR11` SameValue
        CFI `VB.BR12` SameValue
        CFI `VB.BR13` SameValue
        CFI `VB.BR14` SameValue
        CFI `VB.BR15` SameValue
        CFI VB SameValue
        CFI B SameValue
        CFI A SameValue
        CFI PSW SameValue
        CFI DPL0 SameValue
        CFI DPH0 SameValue
        CFI R0 SameValue
        CFI R1 SameValue
        CFI R2 SameValue
        CFI R3 SameValue
        CFI R4 SameValue
        CFI R5 SameValue
        CFI R6 SameValue
        CFI R7 SameValue
        CFI V0 SameValue
        CFI V1 SameValue
        CFI V2 SameValue
        CFI V3 SameValue
        CFI V4 SameValue
        CFI V5 SameValue
        CFI V6 SameValue
        CFI V7 SameValue
        CFI V8 SameValue
        CFI V9 SameValue
        CFI V10 SameValue
        CFI V11 SameValue
        CFI V12 SameValue
        CFI V13 SameValue
        CFI V14 SameValue
        CFI V15 SameValue
        CFI PSPH Undefined
        CFI PSPL Undefined
        CFI XSPH Undefined
        CFI XSPL Undefined
        CFI ?RET Concat
        CFI ?BRET_EXT SameValue
        CFI ?RET_HIGH Frame(CFA_SP, 2)
        CFI ?RET_LOW Frame(CFA_SP, 1)
        CFI EndCommon cfiCommon1
        
osal_msg_deallocate SYMBOL "osal_msg_deallocate"
osal_msg_receive    SYMBOL "osal_msg_receive"
??osal_msg_deallocate?relay SYMBOL "?relay", osal_msg_deallocate
??osal_msg_receive?relay SYMBOL "?relay", osal_msg_receive
myApp_event_loop    SYMBOL "myApp_event_loop"
??myApp_event_loop?relay SYMBOL "?relay", myApp_event_loop
myApp_init          SYMBOL "myApp_init"
??myApp_init?relay  SYMBOL "?relay", myApp_init

        EXTERN osal_msg_deallocate
        FUNCTION osal_msg_deallocate,0202H
        ARGFRAME ISTACK, 0, STACK
        ARGFRAME PSTACK, 0, STACK
        ARGFRAME XSTACK, 10, STACK
        ARGFRAME IOVERLAY, 0, STATIC
        ARGFRAME DOVERLAY, 0, STATIC
        EXTERN osal_msg_receive
        FUNCTION osal_msg_receive,0202H
        ARGFRAME ISTACK, 0, STACK
        ARGFRAME PSTACK, 0, STACK
        ARGFRAME XSTACK, 10, STACK
        ARGFRAME IOVERLAY, 0, STATIC
        ARGFRAME DOVERLAY, 0, STATIC
        EXTERN ??osal_msg_deallocate?relay
        FUNCTION ??osal_msg_deallocate?relay,00H
        EXTERN ??osal_msg_receive?relay
        FUNCTION ??osal_msg_receive?relay,00H
        EXTERN keyMsg

// D:\FileInstall\ZStack-CC2530-2.5.1a_GreenRoom\Projects\zstack\Samples\GreenClassroom_NetWork\Source\MyApp.c
//    1 #include "MyApp.h"
//    2 #include "osal.h"
//    3 #include "AF.h"
//    4 #include "hal_key.h"
//    5 #include "onboard.h"
//    6 #include "hal_key.h"
//    7 #include "hal_adc.h"
//    8 #include "KeyMsg.h"
//    9 
//   10 

        RSEG XDATA_Z:XDATA:NOROOT(0)
        DATA8
//   11 byte myApp_TaskID;  //任务ID
myApp_TaskID:
        DS 1
        REQUIRE __INIT_XDATA_Z
//   12 
//   13 
//   14 
//   15 
//   16 /*********************************************************************
//   17  * 任务 MyApp 的初始化函数
//   18  */

        RSEG BANKED_CODE:CODE:NOROOT(0)
//   19 void myApp_init(byte task_id )
myApp_init:
        CFI Block cfiBlock0 Using cfiCommon0
        CFI Function myApp_init
        CODE
//   20 {
        MOV     A,#-0x9
        LCALL   ?BANKED_ENTER_XDATA
        CFI DPH0 load(1, XDATA, add(CFA_XSP16, literal(-1)))
        CFI DPL0 load(1, XDATA, add(CFA_XSP16, literal(-2)))
        CFI ?BRET_EXT load(1, XDATA, add(CFA_XSP16, literal(-3)))
        CFI ?RET_HIGH load(1, XDATA, add(CFA_XSP16, literal(-4)))
        CFI ?RET_LOW load(1, XDATA, add(CFA_XSP16, literal(-5)))
        CFI R7 load(1, XDATA, add(CFA_XSP16, literal(-6)))
        CFI V0 load(1, XDATA, add(CFA_XSP16, literal(-7)))
        CFI VB load(1, XDATA, add(CFA_XSP16, literal(-8)))
        CFI R6 load(1, XDATA, add(CFA_XSP16, literal(-9)))
        CFI CFA_SP SP+0
        CFI CFA_XSP16 add(XSP16, 9)
        ; Saved register size: 9
        ; Auto size: 0
        MOV     A,R1
//   21 
//   22   myApp_TaskID = task_id;   //将分配到的任务ID保存供其他地方使用
        MOV     DPTR,#myApp_TaskID
        MOVX    @DPTR,A
//   23   
//   24   // SerialCom.init(task_id,PORT0,NULL);   // 用默认参数初始化串口：波特率=384000，无流控，使用PORT0,即UART0
//   25   keyMsg.init(task_id);
        ; Setup parameters for indirect call
        MOV     DPTR,#keyMsg
        LCALL   ?Subroutine0 & 0xFFFF
??CrossCallReturnLabel_0:
        LCALL   ?CALL_IND
//   26 
//   27 }
        MOV     R7,#0x1
        LJMP    ?BANKED_LEAVE_XDATA
        CFI EndBlock cfiBlock0
//   28 
//   29 /*********************************************************************
//   30  * 任务 MyApp的事件处理函数
//   31  */

        RSEG BANKED_CODE:CODE:NOROOT(0)
//   32 uint16 myApp_event_loop(uint8 task_id, uint16 events )
myApp_event_loop:
        CFI Block cfiBlock1 Using cfiCommon0
        CFI Function myApp_event_loop
        CODE
//   33 {
        FUNCALL myApp_event_loop, osal_msg_deallocate
        LOCFRAME ISTACK, 0, STACK
        LOCFRAME PSTACK, 0, STACK
        LOCFRAME XSTACK, 10, STACK
        LOCFRAME IOVERLAY, 0, STATIC
        LOCFRAME DOVERLAY, 0, STATIC
        ARGFRAME ISTACK, 0, STACK
        ARGFRAME PSTACK, 0, STACK
        ARGFRAME XSTACK, 10, STACK
        ARGFRAME IOVERLAY, 0, STATIC
        ARGFRAME DOVERLAY, 0, STATIC
        FUNCALL myApp_event_loop, osal_msg_receive
        LOCFRAME ISTACK, 0, STACK
        LOCFRAME PSTACK, 0, STACK
        LOCFRAME XSTACK, 10, STACK
        LOCFRAME IOVERLAY, 0, STATIC
        LOCFRAME DOVERLAY, 0, STATIC
        ARGFRAME ISTACK, 0, STACK
        ARGFRAME PSTACK, 0, STACK
        ARGFRAME XSTACK, 10, STACK
        ARGFRAME IOVERLAY, 0, STATIC
        ARGFRAME DOVERLAY, 0, STATIC
        MOV     A,#-0xa
        LCALL   ?BANKED_ENTER_XDATA
        CFI DPH0 load(1, XDATA, add(CFA_XSP16, literal(-1)))
        CFI DPL0 load(1, XDATA, add(CFA_XSP16, literal(-2)))
        CFI ?BRET_EXT load(1, XDATA, add(CFA_XSP16, literal(-3)))
        CFI ?RET_HIGH load(1, XDATA, add(CFA_XSP16, literal(-4)))
        CFI ?RET_LOW load(1, XDATA, add(CFA_XSP16, literal(-5)))
        CFI R7 load(1, XDATA, add(CFA_XSP16, literal(-6)))
        CFI V1 load(1, XDATA, add(CFA_XSP16, literal(-7)))
        CFI V0 load(1, XDATA, add(CFA_XSP16, literal(-8)))
        CFI VB load(1, XDATA, add(CFA_XSP16, literal(-9)))
        CFI R6 load(1, XDATA, add(CFA_XSP16, literal(-10)))
        CFI CFA_SP SP+0
        CFI CFA_XSP16 add(XSP16, 10)
        ; Saved register size: 10
        ; Auto size: 0
//   34   afIncomingMSGPacket_t *MSGpkt;
//   35   (void)task_id;  //  参数task_id未被引用，此语句用于避免编译器发出警告
//   36 
//   37   if ( events & SYS_EVENT_MSG )
        MOV     A,R3
        ANL     A,#0x80
        JNZ     ??myApp_event_loop_0
        SJMP    ??myApp_event_loop_1
//   38   {
//   39     while ( (MSGpkt = (afIncomingMSGPacket_t *)osal_msg_receive( myApp_TaskID )) )
//   40     {
//   41       switch ( MSGpkt->hdr.event )
??myApp_event_loop_2:
        MOV     DPL,R6
        MOV     DPH,R7
        MOVX    A,@DPTR
        XRL     A,#0xc0
        JNZ     ??myApp_event_loop_3
//   42       {
//   43         //case SERIAL_PORT_INCOMING_DATA:   //接收到串口消息。当串口接收到数据时，以该消息ID通知App
//   44            //SerialCom.send( (uint8 *)(MSGpkt)+sizeof(osal_event_hdr_t),MSGpkt->hdr.status); // 将接收到消息通过串口输出
//   45           //break;
//   46 
//   47         case KEY_CHANGE:
//   48           keyMsg.process( ((keyChange_t *)MSGpkt)->keys , ((keyChange_t *)MSGpkt)->state );
        ; Setup parameters for indirect call
        INC     DPTR
        INC     DPTR
        MOVX    A,@DPTR
        MOV     R2,A
        MOV     DPL,R6
        MOV     DPH,R7
        INC     DPTR
        INC     DPTR
        INC     DPTR
        MOVX    A,@DPTR
        MOV     R1,A
        MOV     DPTR,#keyMsg + 2
        LCALL   ?Subroutine0 & 0xFFFF
??CrossCallReturnLabel_1:
        LCALL   ?CALL_IND
//   49           break;
//   50           
//   51         default:
//   52           break;
//   53       }
//   54 
//   55       // Release the memory
//   56       osal_msg_deallocate( (uint8 *)MSGpkt );
??myApp_event_loop_3:
        ; Setup parameters for call to function osal_msg_deallocate
        MOV     A,R6
        MOV     R2,A
        MOV     A,R7
        MOV     R3,A
        LCALL   ??osal_msg_deallocate?relay
//   57     }
??myApp_event_loop_0:
        ; Setup parameters for call to function osal_msg_receive
        MOV     DPTR,#myApp_TaskID
        MOVX    A,@DPTR
        MOV     R1,A
        LCALL   ??osal_msg_receive?relay
        MOV     ?V0 + 0,R2
        MOV     ?V0 + 1,R3
        MOV     R6,?V0 + 0
        MOV     R7,?V0 + 1
        MOV     A,R6
        ORL     A,R7
        JNZ     ??myApp_event_loop_2
//   58   }
//   59 
//   60   return 0;
??myApp_event_loop_1:
        MOV     R2,#0x0
        MOV     R3,#0x0
        MOV     R7,#0x2
        LJMP    ?BANKED_LEAVE_XDATA
        CFI EndBlock cfiBlock1
//   61 }

        RSEG BANKED_CODE:CODE:NOROOT(0)
?Subroutine0:
        CFI Block cfiCond2 Using cfiCommon0
        CFI NoFunction
        CFI Conditional ??CrossCallReturnLabel_0
        CFI R6 load(1, XDATA, add(CFA_XSP16, literal(-9)))
        CFI VB load(1, XDATA, add(CFA_XSP16, literal(-8)))
        CFI V0 load(1, XDATA, add(CFA_XSP16, literal(-7)))
        CFI R7 load(1, XDATA, add(CFA_XSP16, literal(-6)))
        CFI ?RET_LOW load(1, XDATA, add(CFA_XSP16, literal(-5)))
        CFI ?RET_HIGH load(1, XDATA, add(CFA_XSP16, literal(-4)))
        CFI ?BRET_EXT load(1, XDATA, add(CFA_XSP16, literal(-3)))
        CFI DPL0 load(1, XDATA, add(CFA_XSP16, literal(-2)))
        CFI DPH0 load(1, XDATA, add(CFA_XSP16, literal(-1)))
        CFI CFA_SP SP+0
        CFI CFA_XSP16 add(XSP16, 9)
        CFI Block cfiCond3 Using cfiCommon0
        CFI (cfiCond3) NoFunction
        CFI (cfiCond3) Conditional ??CrossCallReturnLabel_1
        CFI (cfiCond3) R6 load(1, XDATA, add(CFA_XSP16, literal(-10)))
        CFI (cfiCond3) VB load(1, XDATA, add(CFA_XSP16, literal(-9)))
        CFI (cfiCond3) V0 load(1, XDATA, add(CFA_XSP16, literal(-8)))
        CFI (cfiCond3) V1 load(1, XDATA, add(CFA_XSP16, literal(-7)))
        CFI (cfiCond3) R7 load(1, XDATA, add(CFA_XSP16, literal(-6)))
        CFI (cfiCond3) ?RET_LOW load(1, XDATA, add(CFA_XSP16, literal(-5)))
        CFI (cfiCond3) ?RET_HIGH load(1, XDATA, add(CFA_XSP16, literal(-4)))
        CFI (cfiCond3) ?BRET_EXT load(1, XDATA, add(CFA_XSP16, literal(-3)))
        CFI (cfiCond3) DPL0 load(1, XDATA, add(CFA_XSP16, literal(-2)))
        CFI (cfiCond3) DPH0 load(1, XDATA, add(CFA_XSP16, literal(-1)))
        CFI (cfiCond3) CFA_SP SP+0
        CFI (cfiCond3) CFA_XSP16 add(XSP16, 10)
        CFI Block cfiPicker4 Using cfiCommon1
        CFI (cfiPicker4) NoFunction
        CFI (cfiPicker4) Picker
        MOVX    A,@DPTR
        MOV     R0,A
        INC     DPTR
        MOVX    A,@DPTR
        MOV     DPH,A
        MOV     DPL,R0
        RET
        CFI EndBlock cfiCond2
        CFI EndBlock cfiCond3
        CFI EndBlock cfiPicker4

        RSEG BANK_RELAYS:CODE:REORDER:NOROOT(0)
??myApp_init?relay:
        LCALL   ?BDISPATCH
        DATA
        DC24    myApp_init

        RSEG BANK_RELAYS:CODE:REORDER:NOROOT(0)
??myApp_event_loop?relay:
        LCALL   ?BDISPATCH
        DATA
        DC24    myApp_event_loop

        END
// 
// 112 bytes in segment BANKED_CODE
//  12 bytes in segment BANK_RELAYS
//   1 byte  in segment XDATA_Z
// 
// 124 bytes of CODE  memory
//   1 byte  of XDATA memory
//
//Errors: none
//Warnings: none
